
bin/kernel_nopage：     文件格式 elf32-i386


Disassembly of section .text:

00100000 <kern_entry>:
kern_entry:
    # reload temperate gdt (second time) to remap all physical memory
    # virtual_addr 0~4G=linear_addr&physical_addr -KERNBASE~4G-KERNBASE 
    lgdt REALLOC(__gdtdesc)
    movl $KERNEL_DS, %eax
    movw %ax, %ds
  100000:	0f 01 15 18 30 11 40 	lgdtl  0x40113018
    movw %ax, %es
  100007:	b8 10 00 00 00       	mov    $0x10,%eax
    movw %ax, %ss
  10000c:	66 8e d8             	mov    %ax,%ds

  10000f:	66 8e c0             	mov    %ax,%es
    ljmp $KERNEL_CS, $relocated
  100012:	66 8e d0             	mov    %ax,%ss

relocated:
  100015:	ea 1c 00 10 00 08 00 	ljmp   $0x8,$0x10001c

0010001c <relocated>:

    # set ebp, esp
    movl $0x0, %ebp
    # the kernel stack region is from bootstack -- bootstacktop,
    # the kernel stack size is KSTACKSIZE (8KB)defined in memlayout.h
    movl $bootstacktop, %esp
  10001c:	bd 00 00 00 00       	mov    $0x0,%ebp
    # now kernel stack is ready , call the first C function
    call kern_init

# should never get here
spin:
  100021:	bc 00 30 11 00       	mov    $0x113000,%esp
    jmp spin

.data
  100026:	e8 05 00 00 00       	call   100030 <kern_init>

0010002b <spin>:
.align PGSIZE
    .globl bootstack
bootstack:
    .space KSTACKSIZE
    .globl bootstacktop
  10002b:	eb fe                	jmp    10002b <spin>
  10002d:	66 90                	xchg   %ax,%ax
  10002f:	90                   	nop

00100030 <kern_init>:
int kern_init(void) __attribute__((noreturn));
void grade_backtrace(void);
static void lab1_switch_test(void);

int
kern_init(void) {
  100030:	55                   	push   %ebp
  100031:	89 e5                	mov    %esp,%ebp
  100033:	83 ec 28             	sub    $0x28,%esp
  100036:	8d 05 04 3a 11 00    	lea    0x113a04,%eax
  10003c:	31 c9                	xor    %ecx,%ecx
  10003e:	8d 15 3c 49 11 00    	lea    0x11493c,%edx
  100044:	29 c2                	sub    %eax,%edx
    extern char edata[], end[];
    memset(edata, 0, end - edata);
  100046:	89 04 24             	mov    %eax,(%esp)
  100049:	c7 44 24 04 00 00 00 	movl   $0x0,0x4(%esp)
  100050:	00 
  100051:	89 54 24 08          	mov    %edx,0x8(%esp)
  100055:	89 4d f4             	mov    %ecx,-0xc(%ebp)
  100058:	e8 83 e3 00 00       	call   10e3e0 <memset>

    cons_init();                // init the console
  10005d:	89 45 f0             	mov    %eax,-0x10(%ebp)
  100060:	e8 6b 11 00 00       	call   1011d0 <cons_init>
  100065:	8d 05 f8 f0 10 00    	lea    0x10f0f8,%eax
  10006b:	8d 0d dc f0 10 00    	lea    0x10f0dc,%ecx

    const char *message = "(THU.CST) os is loading ...";
  100071:	89 4d f8             	mov    %ecx,-0x8(%ebp)
    cprintf("%s\n\n", message);
  100074:	8b 4d f8             	mov    -0x8(%ebp),%ecx
  100077:	89 04 24             	mov    %eax,(%esp)
  10007a:	89 4c 24 04          	mov    %ecx,0x4(%esp)
  10007e:	e8 bd 01 00 00       	call   100240 <cprintf>

    print_kerninfo();
  100083:	89 45 ec             	mov    %eax,-0x14(%ebp)
  100086:	e8 55 0a 00 00       	call   100ae0 <print_kerninfo>

    grade_backtrace();
  10008b:	e8 30 00 00 00       	call   1000c0 <grade_backtrace>

    pmm_init();                 // init physical memory management
  100090:	e8 ab 30 00 00       	call   103140 <pmm_init>

    kmem_int();
  100095:	e8 a6 61 00 00       	call   106240 <kmem_int>

    pic_init();                 // init interrupt controller
  10009a:	e8 31 1c 00 00       	call   101cd0 <pic_init>
    idt_init();                 // init interrupt descriptor table
  10009f:	e8 8c 1d 00 00       	call   101e30 <idt_init>

    clock_init();               // init clock interrupt
  1000a4:	e8 a7 0f 00 00       	call   101050 <clock_init>
    intr_enable();              // enable irq interrupt
  1000a9:	e8 62 1d 00 00       	call   101e10 <intr_enable>
    //LAB1: CAHLLENGE 1 If you try to do it, uncomment lab1_switch_test()
    // user/kernel mode switch test
    //lab1_switch_test();

    /* do nothing */
    while (1);
  1000ae:	e9 fb ff ff ff       	jmp    1000ae <kern_init+0x7e>
  1000b3:	66 66 66 66 2e 0f 1f 	data16 data16 data16 nopw %cs:0x0(%eax,%eax,1)
  1000ba:	84 00 00 00 00 00 

001000c0 <grade_backtrace>:
grade_backtrace0(int arg0, int arg1, int arg2) {
    grade_backtrace1(arg0, arg2);
}

void
grade_backtrace(void) {
  1000c0:	55                   	push   %ebp
  1000c1:	89 e5                	mov    %esp,%ebp
  1000c3:	83 ec 18             	sub    $0x18,%esp
  1000c6:	31 c0                	xor    %eax,%eax
  1000c8:	8d 0d 30 00 10 00    	lea    0x100030,%ecx
  1000ce:	ba 00 00 ff ff       	mov    $0xffff0000,%edx
    grade_backtrace0(0, (int)kern_init, 0xffff0000);
  1000d3:	c7 04 24 00 00 00 00 	movl   $0x0,(%esp)
  1000da:	89 4c 24 04          	mov    %ecx,0x4(%esp)
  1000de:	c7 44 24 08 00 00 ff 	movl   $0xffff0000,0x8(%esp)
  1000e5:	ff 
  1000e6:	89 45 fc             	mov    %eax,-0x4(%ebp)
  1000e9:	89 55 f8             	mov    %edx,-0x8(%ebp)
  1000ec:	e8 9f 00 00 00       	call   100190 <grade_backtrace0>
}
  1000f1:	83 c4 18             	add    $0x18,%esp
  1000f4:	5d                   	pop    %ebp
  1000f5:	c3                   	ret    
  1000f6:	66 2e 0f 1f 84 00 00 	nopw   %cs:0x0(%eax,%eax,1)
  1000fd:	00 00 00 

00100100 <grade_backtrace2>:
grade_backtrace2(int arg0, int arg1, int arg2, int arg3) {
  100100:	55                   	push   %ebp
  100101:	89 e5                	mov    %esp,%ebp
  100103:	57                   	push   %edi
  100104:	56                   	push   %esi
  100105:	83 ec 30             	sub    $0x30,%esp
  100108:	8b 45 14             	mov    0x14(%ebp),%eax
  10010b:	8b 4d 10             	mov    0x10(%ebp),%ecx
  10010e:	8b 55 0c             	mov    0xc(%ebp),%edx
  100111:	8b 75 08             	mov    0x8(%ebp),%esi
  100114:	31 ff                	xor    %edi,%edi
  100116:	89 75 f4             	mov    %esi,-0xc(%ebp)
  100119:	89 55 f0             	mov    %edx,-0x10(%ebp)
  10011c:	89 4d ec             	mov    %ecx,-0x14(%ebp)
  10011f:	89 45 e8             	mov    %eax,-0x18(%ebp)
    mon_backtrace(0, NULL, NULL);
  100122:	c7 04 24 00 00 00 00 	movl   $0x0,(%esp)
  100129:	c7 44 24 04 00 00 00 	movl   $0x0,0x4(%esp)
  100130:	00 
  100131:	c7 44 24 08 00 00 00 	movl   $0x0,0x8(%esp)
  100138:	00 
  100139:	89 7d e4             	mov    %edi,-0x1c(%ebp)
  10013c:	e8 af 0d 00 00       	call   100ef0 <mon_backtrace>
}
  100141:	89 45 e0             	mov    %eax,-0x20(%ebp)
  100144:	83 c4 30             	add    $0x30,%esp
  100147:	5e                   	pop    %esi
  100148:	5f                   	pop    %edi
  100149:	5d                   	pop    %ebp
  10014a:	c3                   	ret    
  10014b:	0f 1f 44 00 00       	nopl   0x0(%eax,%eax,1)

00100150 <grade_backtrace1>:
grade_backtrace1(int arg0, int arg1) {
  100150:	55                   	push   %ebp
  100151:	89 e5                	mov    %esp,%ebp
  100153:	56                   	push   %esi
  100154:	83 ec 24             	sub    $0x24,%esp
  100157:	8b 45 0c             	mov    0xc(%ebp),%eax
  10015a:	8b 4d 08             	mov    0x8(%ebp),%ecx
  10015d:	8d 55 f4             	lea    -0xc(%ebp),%edx
  100160:	8d 75 f8             	lea    -0x8(%ebp),%esi
  100163:	89 4d f8             	mov    %ecx,-0x8(%ebp)
  100166:	89 45 f4             	mov    %eax,-0xc(%ebp)
    grade_backtrace2(arg0, (int)&arg0, arg1, (int)&arg1);
  100169:	8b 45 f8             	mov    -0x8(%ebp),%eax
  10016c:	8b 4d f4             	mov    -0xc(%ebp),%ecx
  10016f:	89 04 24             	mov    %eax,(%esp)
  100172:	89 74 24 04          	mov    %esi,0x4(%esp)
  100176:	89 4c 24 08          	mov    %ecx,0x8(%esp)
  10017a:	89 54 24 0c          	mov    %edx,0xc(%esp)
  10017e:	e8 7d ff ff ff       	call   100100 <grade_backtrace2>
}
  100183:	83 c4 24             	add    $0x24,%esp
  100186:	5e                   	pop    %esi
  100187:	5d                   	pop    %ebp
  100188:	c3                   	ret    
  100189:	0f 1f 80 00 00 00 00 	nopl   0x0(%eax)

00100190 <grade_backtrace0>:
grade_backtrace0(int arg0, int arg1, int arg2) {
  100190:	55                   	push   %ebp
  100191:	89 e5                	mov    %esp,%ebp
  100193:	83 ec 18             	sub    $0x18,%esp
  100196:	8b 45 10             	mov    0x10(%ebp),%eax
  100199:	8b 4d 0c             	mov    0xc(%ebp),%ecx
  10019c:	8b 55 08             	mov    0x8(%ebp),%edx
  10019f:	89 55 fc             	mov    %edx,-0x4(%ebp)
  1001a2:	89 4d f8             	mov    %ecx,-0x8(%ebp)
  1001a5:	89 45 f4             	mov    %eax,-0xc(%ebp)
    grade_backtrace1(arg0, arg2);
  1001a8:	8b 45 fc             	mov    -0x4(%ebp),%eax
  1001ab:	8b 4d f4             	mov    -0xc(%ebp),%ecx
  1001ae:	89 04 24             	mov    %eax,(%esp)
  1001b1:	89 4c 24 04          	mov    %ecx,0x4(%esp)
  1001b5:	e8 96 ff ff ff       	call   100150 <grade_backtrace1>
}
  1001ba:	83 c4 18             	add    $0x18,%esp
  1001bd:	5d                   	pop    %ebp
  1001be:	c3                   	ret    
  1001bf:	90                   	nop

001001c0 <vcprintf>:
 *
 * Call this function if you are already dealing with a va_list.
 * Or you probably want cprintf() instead.
 * */
int
vcprintf(const char *fmt, va_list ap) {
  1001c0:	55                   	push   %ebp
  1001c1:	89 e5                	mov    %esp,%ebp
  1001c3:	56                   	push   %esi
  1001c4:	83 ec 24             	sub    $0x24,%esp
  1001c7:	8b 45 0c             	mov    0xc(%ebp),%eax
  1001ca:	8b 4d 08             	mov    0x8(%ebp),%ecx
  1001cd:	8d 15 10 02 10 00    	lea    0x100210,%edx
  1001d3:	8d 75 f0             	lea    -0x10(%ebp),%esi
  1001d6:	89 4d f8             	mov    %ecx,-0x8(%ebp)
  1001d9:	89 45 f4             	mov    %eax,-0xc(%ebp)
    int cnt = 0;
  1001dc:	c7 45 f0 00 00 00 00 	movl   $0x0,-0x10(%ebp)
    vprintfmt((void*)cputch, &cnt, fmt, ap);
  1001e3:	8b 45 f8             	mov    -0x8(%ebp),%eax
  1001e6:	8b 4d f4             	mov    -0xc(%ebp),%ecx
  1001e9:	89 14 24             	mov    %edx,(%esp)
  1001ec:	89 74 24 04          	mov    %esi,0x4(%esp)
  1001f0:	89 44 24 08          	mov    %eax,0x8(%esp)
  1001f4:	89 4c 24 0c          	mov    %ecx,0xc(%esp)
  1001f8:	e8 43 e4 00 00       	call   10e640 <vprintfmt>
    return cnt;
  1001fd:	8b 45 f0             	mov    -0x10(%ebp),%eax
  100200:	83 c4 24             	add    $0x24,%esp
  100203:	5e                   	pop    %esi
  100204:	5d                   	pop    %ebp
  100205:	c3                   	ret    
  100206:	66 2e 0f 1f 84 00 00 	nopw   %cs:0x0(%eax,%eax,1)
  10020d:	00 00 00 

00100210 <cputch>:
cputch(int c, int *cnt) {
  100210:	55                   	push   %ebp
  100211:	89 e5                	mov    %esp,%ebp
  100213:	83 ec 18             	sub    $0x18,%esp
  100216:	8b 45 0c             	mov    0xc(%ebp),%eax
  100219:	8b 4d 08             	mov    0x8(%ebp),%ecx
  10021c:	89 4d fc             	mov    %ecx,-0x4(%ebp)
  10021f:	89 45 f8             	mov    %eax,-0x8(%ebp)
    cons_putc(c);
  100222:	8b 45 fc             	mov    -0x4(%ebp),%eax
  100225:	89 04 24             	mov    %eax,(%esp)
  100228:	e8 f3 11 00 00       	call   101420 <cons_putc>
    (*cnt) ++;
  10022d:	8b 45 f8             	mov    -0x8(%ebp),%eax
  100230:	8b 08                	mov    (%eax),%ecx
  100232:	83 c1 01             	add    $0x1,%ecx
  100235:	89 08                	mov    %ecx,(%eax)
}
  100237:	83 c4 18             	add    $0x18,%esp
  10023a:	5d                   	pop    %ebp
  10023b:	c3                   	ret    
  10023c:	0f 1f 40 00          	nopl   0x0(%eax)

00100240 <cprintf>:
 *
 * The return value is the number of characters which would be
 * written to stdout.
 * */
int
cprintf(const char *fmt, ...) {
  100240:	55                   	push   %ebp
  100241:	89 e5                	mov    %esp,%ebp
  100243:	83 ec 18             	sub    $0x18,%esp
  100246:	8b 45 08             	mov    0x8(%ebp),%eax
  100249:	89 45 fc             	mov    %eax,-0x4(%ebp)
  10024c:	8d 45 0c             	lea    0xc(%ebp),%eax
    va_list ap;
    int cnt;
    va_start(ap, fmt);
  10024f:	89 45 f8             	mov    %eax,-0x8(%ebp)
    cnt = vcprintf(fmt, ap);
  100252:	8b 4d fc             	mov    -0x4(%ebp),%ecx
  100255:	89 e2                	mov    %esp,%edx
  100257:	89 42 04             	mov    %eax,0x4(%edx)
  10025a:	89 0a                	mov    %ecx,(%edx)
  10025c:	e8 5f ff ff ff       	call   1001c0 <vcprintf>
  100261:	89 45 f4             	mov    %eax,-0xc(%ebp)
    va_end(ap);
    return cnt;
  100264:	83 c4 18             	add    $0x18,%esp
  100267:	5d                   	pop    %ebp
  100268:	c3                   	ret    
  100269:	0f 1f 80 00 00 00 00 	nopl   0x0(%eax)

00100270 <cputchar>:
}

/* cputchar - writes a single character to stdout */
void
cputchar(int c) {
  100270:	55                   	push   %ebp
  100271:	89 e5                	mov    %esp,%ebp
  100273:	83 ec 08             	sub    $0x8,%esp
  100276:	8b 45 08             	mov    0x8(%ebp),%eax
  100279:	89 45 fc             	mov    %eax,-0x4(%ebp)
    cons_putc(c);
  10027c:	8b 45 fc             	mov    -0x4(%ebp),%eax
  10027f:	89 04 24             	mov    %eax,(%esp)
  100282:	e8 99 11 00 00       	call   101420 <cons_putc>
}
  100287:	83 c4 08             	add    $0x8,%esp
  10028a:	5d                   	pop    %ebp
  10028b:	c3                   	ret    
  10028c:	0f 1f 40 00          	nopl   0x0(%eax)

00100290 <cputs>:
/* *
 * cputs- writes the string pointed by @str to stdout and
 * appends a newline character.
 * */
int
cputs(const char *str) {
  100290:	55                   	push   %ebp
  100291:	89 e5                	mov    %esp,%ebp
  100293:	83 ec 18             	sub    $0x18,%esp
  100296:	8b 45 08             	mov    0x8(%ebp),%eax
  100299:	89 45 fc             	mov    %eax,-0x4(%ebp)
    int cnt = 0;
  10029c:	c7 45 f8 00 00 00 00 	movl   $0x0,-0x8(%ebp)
    char c;
    while ((c = *str ++) != '\0') {
  1002a3:	8b 45 fc             	mov    -0x4(%ebp),%eax
  1002a6:	89 c1                	mov    %eax,%ecx
  1002a8:	83 c1 01             	add    $0x1,%ecx
  1002ab:	89 4d fc             	mov    %ecx,-0x4(%ebp)
  1002ae:	8a 10                	mov    (%eax),%dl
  1002b0:	88 55 f7             	mov    %dl,-0x9(%ebp)
  1002b3:	0f be c2             	movsbl %dl,%eax
  1002b6:	83 f8 00             	cmp    $0x0,%eax
  1002b9:	0f 84 18 00 00 00    	je     1002d7 <cputs+0x47>
  1002bf:	8d 45 f8             	lea    -0x8(%ebp),%eax
        cputch(c, &cnt);
  1002c2:	0f be 4d f7          	movsbl -0x9(%ebp),%ecx
  1002c6:	89 0c 24             	mov    %ecx,(%esp)
  1002c9:	89 44 24 04          	mov    %eax,0x4(%esp)
  1002cd:	e8 3e ff ff ff       	call   100210 <cputch>
    while ((c = *str ++) != '\0') {
  1002d2:	e9 cc ff ff ff       	jmp    1002a3 <cputs+0x13>
  1002d7:	b8 0a 00 00 00       	mov    $0xa,%eax
  1002dc:	8d 4d f8             	lea    -0x8(%ebp),%ecx
    }
    cputch('\n', &cnt);
  1002df:	c7 04 24 0a 00 00 00 	movl   $0xa,(%esp)
  1002e6:	89 4c 24 04          	mov    %ecx,0x4(%esp)
  1002ea:	89 45 f0             	mov    %eax,-0x10(%ebp)
  1002ed:	e8 1e ff ff ff       	call   100210 <cputch>
    return cnt;
  1002f2:	8b 45 f8             	mov    -0x8(%ebp),%eax
  1002f5:	83 c4 18             	add    $0x18,%esp
  1002f8:	5d                   	pop    %ebp
  1002f9:	c3                   	ret    
  1002fa:	66 0f 1f 44 00 00    	nopw   0x0(%eax,%eax,1)

00100300 <getchar>:
}

/* getchar - reads a single non-zero character from stdin */
int
getchar(void) {
  100300:	55                   	push   %ebp
  100301:	89 e5                	mov    %esp,%ebp
  100303:	83 ec 08             	sub    $0x8,%esp
    int c;
    while ((c = cons_getc()) == 0)
  100306:	e8 d5 14 00 00       	call   1017e0 <cons_getc>
  10030b:	89 45 fc             	mov    %eax,-0x4(%ebp)
  10030e:	83 f8 00             	cmp    $0x0,%eax
  100311:	0f 85 05 00 00 00    	jne    10031c <getchar+0x1c>
  100317:	e9 ea ff ff ff       	jmp    100306 <getchar+0x6>
        /* do nothing */;
    return c;
  10031c:	8b 45 fc             	mov    -0x4(%ebp),%eax
  10031f:	83 c4 08             	add    $0x8,%esp
  100322:	5d                   	pop    %ebp
  100323:	c3                   	ret    
  100324:	66 90                	xchg   %ax,%ax
  100326:	66 90                	xchg   %ax,%ax
  100328:	66 90                	xchg   %ax,%ax
  10032a:	66 90                	xchg   %ax,%ax
  10032c:	66 90                	xchg   %ax,%ax
  10032e:	66 90                	xchg   %ax,%ax

00100330 <readline>:
 * The readline() function returns the text of the line read. If some errors
 * are happened, NULL is returned. The return value is a global variable,
 * thus it should be copied before it is used.
 * */
char *
readline(const char *prompt) {
  100330:	55                   	push   %ebp
  100331:	89 e5                	mov    %esp,%ebp
  100333:	83 ec 28             	sub    $0x28,%esp
  100336:	8b 45 08             	mov    0x8(%ebp),%eax
  100339:	89 45 f8             	mov    %eax,-0x8(%ebp)
    if (prompt != NULL) {
  10033c:	83 7d f8 00          	cmpl   $0x0,-0x8(%ebp)
  100340:	0f 84 18 00 00 00    	je     10035e <readline+0x2e>
  100346:	8d 05 a0 f8 10 00    	lea    0x10f8a0,%eax
        cprintf("%s", prompt);
  10034c:	8b 4d f8             	mov    -0x8(%ebp),%ecx
  10034f:	89 04 24             	mov    %eax,(%esp)
  100352:	89 4c 24 04          	mov    %ecx,0x4(%esp)
  100356:	e8 e5 fe ff ff       	call   100240 <cprintf>
  10035b:	89 45 ec             	mov    %eax,-0x14(%ebp)
    }
    int i = 0, c;
  10035e:	c7 45 f4 00 00 00 00 	movl   $0x0,-0xc(%ebp)
    while (1) {
        c = getchar();
  100365:	e8 96 ff ff ff       	call   100300 <getchar>
  10036a:	89 45 f0             	mov    %eax,-0x10(%ebp)
        if (c < 0) {
  10036d:	83 7d f0 00          	cmpl   $0x0,-0x10(%ebp)
  100371:	0f 8d 0c 00 00 00    	jge    100383 <readline+0x53>
            return NULL;
  100377:	c7 45 fc 00 00 00 00 	movl   $0x0,-0x4(%ebp)
  10037e:	e9 b7 00 00 00       	jmp    10043a <readline+0x10a>
        }
        else if (c >= ' ' && i < BUFSIZE - 1) {
  100383:	83 7d f0 20          	cmpl   $0x20,-0x10(%ebp)
  100387:	0f 8c 34 00 00 00    	jl     1003c1 <readline+0x91>
  10038d:	81 7d f4 ff 03 00 00 	cmpl   $0x3ff,-0xc(%ebp)
  100394:	0f 8d 27 00 00 00    	jge    1003c1 <readline+0x91>
            cputchar(c);
  10039a:	8b 45 f0             	mov    -0x10(%ebp),%eax
  10039d:	89 04 24             	mov    %eax,(%esp)
  1003a0:	e8 cb fe ff ff       	call   100270 <cputchar>
            buf[i ++] = c;
  1003a5:	8b 45 f0             	mov    -0x10(%ebp),%eax
  1003a8:	88 c1                	mov    %al,%cl
  1003aa:	8b 45 f4             	mov    -0xc(%ebp),%eax
  1003ad:	89 c2                	mov    %eax,%edx
  1003af:	83 c2 01             	add    $0x1,%edx
  1003b2:	89 55 f4             	mov    %edx,-0xc(%ebp)
  1003b5:	88 0c 05 04 3a 11 00 	mov    %cl,0x113a04(,%eax,1)
        }
  1003bc:	e9 6f 00 00 00       	jmp    100430 <readline+0x100>
        else if (c == '\b' && i > 0) {
  1003c1:	83 7d f0 08          	cmpl   $0x8,-0x10(%ebp)
  1003c5:	0f 85 23 00 00 00    	jne    1003ee <readline+0xbe>
  1003cb:	83 7d f4 00          	cmpl   $0x0,-0xc(%ebp)
  1003cf:	0f 8e 19 00 00 00    	jle    1003ee <readline+0xbe>
            cputchar(c);
  1003d5:	8b 45 f0             	mov    -0x10(%ebp),%eax
  1003d8:	89 04 24             	mov    %eax,(%esp)
  1003db:	e8 90 fe ff ff       	call   100270 <cputchar>
            i --;
  1003e0:	8b 45 f4             	mov    -0xc(%ebp),%eax
  1003e3:	83 c0 ff             	add    $0xffffffff,%eax
  1003e6:	89 45 f4             	mov    %eax,-0xc(%ebp)
        }
  1003e9:	e9 3d 00 00 00       	jmp    10042b <readline+0xfb>
        else if (c == '\n' || c == '\r') {
  1003ee:	83 7d f0 0a          	cmpl   $0xa,-0x10(%ebp)
  1003f2:	0f 84 0a 00 00 00    	je     100402 <readline+0xd2>
  1003f8:	83 7d f0 0d          	cmpl   $0xd,-0x10(%ebp)
  1003fc:	0f 85 24 00 00 00    	jne    100426 <readline+0xf6>
            cputchar(c);
  100402:	8b 45 f0             	mov    -0x10(%ebp),%eax
  100405:	89 04 24             	mov    %eax,(%esp)
  100408:	e8 63 fe ff ff       	call   100270 <cputchar>
  10040d:	8d 05 04 3a 11 00    	lea    0x113a04,%eax
            buf[i] = '\0';
  100413:	8b 4d f4             	mov    -0xc(%ebp),%ecx
  100416:	c6 04 0d 04 3a 11 00 	movb   $0x0,0x113a04(,%ecx,1)
  10041d:	00 
            return buf;
  10041e:	89 45 fc             	mov    %eax,-0x4(%ebp)
  100421:	e9 14 00 00 00       	jmp    10043a <readline+0x10a>
  100426:	e9 00 00 00 00       	jmp    10042b <readline+0xfb>
  10042b:	e9 00 00 00 00       	jmp    100430 <readline+0x100>
  100430:	e9 00 00 00 00       	jmp    100435 <readline+0x105>
    while (1) {
  100435:	e9 2b ff ff ff       	jmp    100365 <readline+0x35>
        }
    }
}
  10043a:	8b 45 fc             	mov    -0x4(%ebp),%eax
  10043d:	83 c4 28             	add    $0x28,%esp
  100440:	5d                   	pop    %ebp
  100441:	c3                   	ret    
  100442:	66 90                	xchg   %ax,%ax
  100444:	66 90                	xchg   %ax,%ax
  100446:	66 90                	xchg   %ax,%ax
  100448:	66 90                	xchg   %ax,%ax
  10044a:	66 90                	xchg   %ax,%ax
  10044c:	66 90                	xchg   %ax,%ax
  10044e:	66 90                	xchg   %ax,%ax

00100450 <__panic>:
/* *
 * __panic - __panic is called on unresolvable fatal errors. it prints
 * "panic: 'message'", and then enters the kernel monitor.
 * */
void
__panic(const char *file, int line, const char *fmt, ...) {
  100450:	55                   	push   %ebp
  100451:	89 e5                	mov    %esp,%ebp
  100453:	83 ec 38             	sub    $0x38,%esp
  100456:	8b 45 10             	mov    0x10(%ebp),%eax
  100459:	8b 4d 0c             	mov    0xc(%ebp),%ecx
  10045c:	8b 55 08             	mov    0x8(%ebp),%edx
  10045f:	89 55 fc             	mov    %edx,-0x4(%ebp)
  100462:	89 4d f8             	mov    %ecx,-0x8(%ebp)
  100465:	89 45 f4             	mov    %eax,-0xc(%ebp)
    if (is_panic) {
  100468:	83 3d 04 3e 11 00 00 	cmpl   $0x0,0x113e04
  10046f:	0f 84 05 00 00 00    	je     10047a <__panic+0x2a>
        goto panic_dead;
  100475:	e9 57 00 00 00       	jmp    1004d1 <__panic+0x81>
  10047a:	8d 05 fd f0 10 00    	lea    0x10f0fd,%eax
  100480:	8d 4d f0             	lea    -0x10(%ebp),%ecx
    }
    is_panic = 1;
  100483:	c7 05 04 3e 11 00 01 	movl   $0x1,0x113e04
  10048a:	00 00 00 
  10048d:	8d 55 14             	lea    0x14(%ebp),%edx

    // print the 'message'
    va_list ap;
    va_start(ap, fmt);
  100490:	89 11                	mov    %edx,(%ecx)
    cprintf("kernel panic at %s:%d:\n    ", file, line);
  100492:	8b 4d fc             	mov    -0x4(%ebp),%ecx
  100495:	8b 55 f8             	mov    -0x8(%ebp),%edx
  100498:	89 04 24             	mov    %eax,(%esp)
  10049b:	89 4c 24 04          	mov    %ecx,0x4(%esp)
  10049f:	89 54 24 08          	mov    %edx,0x8(%esp)
  1004a3:	e8 98 fd ff ff       	call   100240 <cprintf>
    vcprintf(fmt, ap);
  1004a8:	8b 4d f4             	mov    -0xc(%ebp),%ecx
  1004ab:	8b 55 f0             	mov    -0x10(%ebp),%edx
  1004ae:	89 0c 24             	mov    %ecx,(%esp)
  1004b1:	89 54 24 04          	mov    %edx,0x4(%esp)
  1004b5:	89 45 ec             	mov    %eax,-0x14(%ebp)
  1004b8:	e8 03 fd ff ff       	call   1001c0 <vcprintf>
  1004bd:	8d 0d fb f0 10 00    	lea    0x10f0fb,%ecx
    cprintf("\n");
  1004c3:	89 0c 24             	mov    %ecx,(%esp)
  1004c6:	89 45 e8             	mov    %eax,-0x18(%ebp)
  1004c9:	e8 72 fd ff ff       	call   100240 <cprintf>
  1004ce:	89 45 e4             	mov    %eax,-0x1c(%ebp)
    va_end(ap);

panic_dead:
    intr_disable();
  1004d1:	e8 4a 19 00 00       	call   101e20 <intr_disable>
  1004d6:	31 c0                	xor    %eax,%eax
    while (1) {
        kmonitor(NULL);
  1004d8:	c7 04 24 00 00 00 00 	movl   $0x0,(%esp)
  1004df:	89 45 e0             	mov    %eax,-0x20(%ebp)
  1004e2:	e8 d9 07 00 00       	call   100cc0 <kmonitor>
    while (1) {
  1004e7:	e9 ea ff ff ff       	jmp    1004d6 <__panic+0x86>
  1004ec:	0f 1f 40 00          	nopl   0x0(%eax)

001004f0 <__warn>:
    }
}

/* __warn - like panic, but don't */
void
__warn(const char *file, int line, const char *fmt, ...) {
  1004f0:	55                   	push   %ebp
  1004f1:	89 e5                	mov    %esp,%ebp
  1004f3:	56                   	push   %esi
  1004f4:	83 ec 34             	sub    $0x34,%esp
  1004f7:	8b 45 10             	mov    0x10(%ebp),%eax
  1004fa:	8b 4d 0c             	mov    0xc(%ebp),%ecx
  1004fd:	8b 55 08             	mov    0x8(%ebp),%edx
  100500:	89 55 f8             	mov    %edx,-0x8(%ebp)
  100503:	89 4d f4             	mov    %ecx,-0xc(%ebp)
  100506:	89 45 f0             	mov    %eax,-0x10(%ebp)
  100509:	8d 45 14             	lea    0x14(%ebp),%eax
    va_list ap;
    va_start(ap, fmt);
  10050c:	89 45 ec             	mov    %eax,-0x14(%ebp)
    cprintf("kernel warning at %s:%d:\n    ", file, line);
  10050f:	8b 45 f8             	mov    -0x8(%ebp),%eax
  100512:	8b 4d f4             	mov    -0xc(%ebp),%ecx
  100515:	89 e2                	mov    %esp,%edx
  100517:	89 4a 08             	mov    %ecx,0x8(%edx)
  10051a:	89 42 04             	mov    %eax,0x4(%edx)
  10051d:	c7 02 19 f1 10 00    	movl   $0x10f119,(%edx)
  100523:	e8 18 fd ff ff       	call   100240 <cprintf>
    vcprintf(fmt, ap);
  100528:	8b 4d f0             	mov    -0x10(%ebp),%ecx
  10052b:	8b 55 ec             	mov    -0x14(%ebp),%edx
  10052e:	89 e6                	mov    %esp,%esi
  100530:	89 56 04             	mov    %edx,0x4(%esi)
  100533:	89 0e                	mov    %ecx,(%esi)
  100535:	89 45 e8             	mov    %eax,-0x18(%ebp)
  100538:	e8 83 fc ff ff       	call   1001c0 <vcprintf>
    cprintf("\n");
  10053d:	89 e1                	mov    %esp,%ecx
  10053f:	c7 01 fb f0 10 00    	movl   $0x10f0fb,(%ecx)
  100545:	89 45 e4             	mov    %eax,-0x1c(%ebp)
  100548:	e8 f3 fc ff ff       	call   100240 <cprintf>
    va_end(ap);
}
  10054d:	89 45 e0             	mov    %eax,-0x20(%ebp)
  100550:	83 c4 34             	add    $0x34,%esp
  100553:	5e                   	pop    %esi
  100554:	5d                   	pop    %ebp
  100555:	c3                   	ret    
  100556:	66 2e 0f 1f 84 00 00 	nopw   %cs:0x0(%eax,%eax,1)
  10055d:	00 00 00 

00100560 <is_kernel_panic>:

bool
is_kernel_panic(void) {
  100560:	55                   	push   %ebp
  100561:	89 e5                	mov    %esp,%ebp
    return is_panic;
  100563:	a1 04 3e 11 00       	mov    0x113e04,%eax
  100568:	5d                   	pop    %ebp
  100569:	c3                   	ret    
  10056a:	66 90                	xchg   %ax,%ax
  10056c:	66 90                	xchg   %ax,%ax
  10056e:	66 90                	xchg   %ax,%ax

00100570 <debuginfo_eip>:
 * the specified instruction address, @addr.  Returns 0 if information
 * was found, and negative if not.  But even if it returns negative it
 * has stored some information into '*info'.
 * */
int
debuginfo_eip(uintptr_t addr, struct eipdebuginfo *info) {
  100570:	55                   	push   %ebp
  100571:	89 e5                	mov    %esp,%ebp
  100573:	53                   	push   %ebx
  100574:	57                   	push   %edi
  100575:	56                   	push   %esi
  100576:	83 ec 6c             	sub    $0x6c,%esp
  100579:	8b 45 0c             	mov    0xc(%ebp),%eax
  10057c:	8b 4d 08             	mov    0x8(%ebp),%ecx
  10057f:	8d 15 08 07 11 00    	lea    0x110708,%edx
  100585:	8d 35 08 07 11 00    	lea    0x110708,%esi
  10058b:	8d 3d 07 07 11 00    	lea    0x110707,%edi
  100591:	8d 1d 07 07 11 00    	lea    0x110707,%ebx
  100597:	89 45 bc             	mov    %eax,-0x44(%ebp)
  10059a:	8d 05 37 f1 10 00    	lea    0x10f137,%eax
  1005a0:	89 4d ec             	mov    %ecx,-0x14(%ebp)
  1005a3:	8b 4d bc             	mov    -0x44(%ebp),%ecx
  1005a6:	89 4d e8             	mov    %ecx,-0x18(%ebp)
    const struct stab *stabs, *stab_end;
    const char *stabstr, *stabstr_end;

    info->eip_file = "<unknown>";
  1005a9:	8b 4d e8             	mov    -0x18(%ebp),%ecx
  1005ac:	89 01                	mov    %eax,(%ecx)
    info->eip_line = 0;
  1005ae:	8b 4d e8             	mov    -0x18(%ebp),%ecx
  1005b1:	c7 41 04 00 00 00 00 	movl   $0x0,0x4(%ecx)
    info->eip_fn_name = "<unknown>";
  1005b8:	8b 4d e8             	mov    -0x18(%ebp),%ecx
  1005bb:	89 41 08             	mov    %eax,0x8(%ecx)
    info->eip_fn_namelen = 9;
  1005be:	8b 45 e8             	mov    -0x18(%ebp),%eax
  1005c1:	c7 40 0c 09 00 00 00 	movl   $0x9,0xc(%eax)
    info->eip_fn_addr = addr;
  1005c8:	8b 45 ec             	mov    -0x14(%ebp),%eax
  1005cb:	8b 4d e8             	mov    -0x18(%ebp),%ecx
  1005ce:	89 41 10             	mov    %eax,0x10(%ecx)
    info->eip_fn_narg = 0;
  1005d1:	8b 45 e8             	mov    -0x18(%ebp),%eax
  1005d4:	c7 40 14 00 00 00 00 	movl   $0x0,0x14(%eax)

    stabs = __STAB_BEGIN__;
  1005db:	89 5d e4             	mov    %ebx,-0x1c(%ebp)
    stab_end = __STAB_END__;
  1005de:	89 7d e0             	mov    %edi,-0x20(%ebp)
    stabstr = __STABSTR_BEGIN__;
  1005e1:	89 75 dc             	mov    %esi,-0x24(%ebp)
    stabstr_end = __STABSTR_END__;
  1005e4:	89 55 d8             	mov    %edx,-0x28(%ebp)

    // String table validity checks
    if (stabstr_end <= stabstr || stabstr_end[-1] != 0) {
  1005e7:	8b 45 d8             	mov    -0x28(%ebp),%eax
  1005ea:	3b 45 dc             	cmp    -0x24(%ebp),%eax
  1005ed:	0f 86 10 00 00 00    	jbe    100603 <debuginfo_eip+0x93>
  1005f3:	8b 45 d8             	mov    -0x28(%ebp),%eax
  1005f6:	0f be 40 ff          	movsbl -0x1(%eax),%eax
  1005fa:	83 f8 00             	cmp    $0x0,%eax
  1005fd:	0f 84 0c 00 00 00    	je     10060f <debuginfo_eip+0x9f>
        return -1;
  100603:	c7 45 f0 ff ff ff ff 	movl   $0xffffffff,-0x10(%ebp)
  10060a:	e9 f0 02 00 00       	jmp    1008ff <debuginfo_eip+0x38f>
  10060f:	8d 45 d4             	lea    -0x2c(%ebp),%eax
  100612:	8d 4d d0             	lea    -0x30(%ebp),%ecx
  100615:	ba 64 00 00 00       	mov    $0x64,%edx
  10061a:	be 0c 00 00 00       	mov    $0xc,%esi
    // 'eip'.  First, we find the basic source file containing 'eip'.
    // Then, we look in that source file for the function.  Then we look
    // for the line number.

    // Search the entire set of stabs for the source file (type N_SO).
    int lfile = 0, rfile = (stab_end - stabs) - 1;
  10061f:	c7 45 d4 00 00 00 00 	movl   $0x0,-0x2c(%ebp)
  100626:	8b 7d e0             	mov    -0x20(%ebp),%edi
  100629:	8b 5d e4             	mov    -0x1c(%ebp),%ebx
  10062c:	29 df                	sub    %ebx,%edi
  10062e:	89 45 b8             	mov    %eax,-0x48(%ebp)
  100631:	89 f8                	mov    %edi,%eax
  100633:	89 55 b4             	mov    %edx,-0x4c(%ebp)
  100636:	99                   	cltd   
  100637:	f7 fe                	idiv   %esi
  100639:	83 e8 01             	sub    $0x1,%eax
  10063c:	89 45 d0             	mov    %eax,-0x30(%ebp)
    stab_binsearch(stabs, &lfile, &rfile, N_SO, addr);
  10063f:	8b 45 e4             	mov    -0x1c(%ebp),%eax
  100642:	8b 75 ec             	mov    -0x14(%ebp),%esi
  100645:	89 04 24             	mov    %eax,(%esp)
  100648:	8b 45 b8             	mov    -0x48(%ebp),%eax
  10064b:	89 44 24 04          	mov    %eax,0x4(%esp)
  10064f:	89 4c 24 08          	mov    %ecx,0x8(%esp)
  100653:	c7 44 24 0c 64 00 00 	movl   $0x64,0xc(%esp)
  10065a:	00 
  10065b:	89 74 24 10          	mov    %esi,0x10(%esp)
  10065f:	e8 ac 02 00 00       	call   100910 <stab_binsearch>
    if (lfile == 0)
  100664:	83 7d d4 00          	cmpl   $0x0,-0x2c(%ebp)
  100668:	0f 85 0c 00 00 00    	jne    10067a <debuginfo_eip+0x10a>
        return -1;
  10066e:	c7 45 f0 ff ff ff ff 	movl   $0xffffffff,-0x10(%ebp)
  100675:	e9 85 02 00 00       	jmp    1008ff <debuginfo_eip+0x38f>
  10067a:	8d 45 cc             	lea    -0x34(%ebp),%eax
  10067d:	8d 4d c8             	lea    -0x38(%ebp),%ecx
  100680:	ba 24 00 00 00       	mov    $0x24,%edx

    // Search within that file's stabs for the function definition
    // (N_FUN).
    int lfun = lfile, rfun = rfile;
  100685:	8b 75 d4             	mov    -0x2c(%ebp),%esi
  100688:	89 75 cc             	mov    %esi,-0x34(%ebp)
  10068b:	8b 75 d0             	mov    -0x30(%ebp),%esi
  10068e:	89 75 c8             	mov    %esi,-0x38(%ebp)
    int lline, rline;
    stab_binsearch(stabs, &lfun, &rfun, N_FUN, addr);
  100691:	8b 75 e4             	mov    -0x1c(%ebp),%esi
  100694:	8b 7d ec             	mov    -0x14(%ebp),%edi
  100697:	89 34 24             	mov    %esi,(%esp)
  10069a:	89 44 24 04          	mov    %eax,0x4(%esp)
  10069e:	89 4c 24 08          	mov    %ecx,0x8(%esp)
  1006a2:	c7 44 24 0c 24 00 00 	movl   $0x24,0xc(%esp)
  1006a9:	00 
  1006aa:	89 7c 24 10          	mov    %edi,0x10(%esp)
  1006ae:	89 55 b0             	mov    %edx,-0x50(%ebp)
  1006b1:	e8 5a 02 00 00       	call   100910 <stab_binsearch>

    if (lfun <= rfun) {
  1006b6:	8b 45 cc             	mov    -0x34(%ebp),%eax
  1006b9:	3b 45 c8             	cmp    -0x38(%ebp),%eax
  1006bc:	0f 8f 60 00 00 00    	jg     100722 <debuginfo_eip+0x1b2>
        // stabs[lfun] points to the function name
        // in the string table, but check bounds just in case.
        if (stabs[lfun].n_strx < stabstr_end - stabstr) {
  1006c2:	8b 45 cc             	mov    -0x34(%ebp),%eax
  1006c5:	6b c0 0c             	imul   $0xc,%eax,%eax
  1006c8:	03 45 e4             	add    -0x1c(%ebp),%eax
  1006cb:	8b 00                	mov    (%eax),%eax
  1006cd:	8b 4d d8             	mov    -0x28(%ebp),%ecx
  1006d0:	8b 55 dc             	mov    -0x24(%ebp),%edx
  1006d3:	29 d1                	sub    %edx,%ecx
  1006d5:	39 c8                	cmp    %ecx,%eax
  1006d7:	0f 83 14 00 00 00    	jae    1006f1 <debuginfo_eip+0x181>
            info->eip_fn_name = stabstr + stabs[lfun].n_strx;
  1006dd:	8b 45 dc             	mov    -0x24(%ebp),%eax
  1006e0:	8b 4d cc             	mov    -0x34(%ebp),%ecx
  1006e3:	6b c9 0c             	imul   $0xc,%ecx,%ecx
  1006e6:	03 4d e4             	add    -0x1c(%ebp),%ecx
  1006e9:	03 01                	add    (%ecx),%eax
  1006eb:	8b 4d e8             	mov    -0x18(%ebp),%ecx
  1006ee:	89 41 08             	mov    %eax,0x8(%ecx)
        }
        info->eip_fn_addr = stabs[lfun].n_value;
  1006f1:	8b 45 cc             	mov    -0x34(%ebp),%eax
  1006f4:	6b c0 0c             	imul   $0xc,%eax,%eax
  1006f7:	03 45 e4             	add    -0x1c(%ebp),%eax
  1006fa:	8b 40 08             	mov    0x8(%eax),%eax
  1006fd:	8b 4d e8             	mov    -0x18(%ebp),%ecx
  100700:	89 41 10             	mov    %eax,0x10(%ecx)
        addr -= info->eip_fn_addr;
  100703:	8b 45 e8             	mov    -0x18(%ebp),%eax
  100706:	8b 40 10             	mov    0x10(%eax),%eax
  100709:	8b 4d ec             	mov    -0x14(%ebp),%ecx
  10070c:	29 c1                	sub    %eax,%ecx
  10070e:	89 4d ec             	mov    %ecx,-0x14(%ebp)
        // Search within the function definition for the line number.
        lline = lfun;
  100711:	8b 45 cc             	mov    -0x34(%ebp),%eax
  100714:	89 45 c4             	mov    %eax,-0x3c(%ebp)
        rline = rfun;
  100717:	8b 45 c8             	mov    -0x38(%ebp),%eax
  10071a:	89 45 c0             	mov    %eax,-0x40(%ebp)
    } else {
  10071d:	e9 15 00 00 00       	jmp    100737 <debuginfo_eip+0x1c7>
        // Couldn't find function stab!  Maybe we're in an assembly
        // file.  Search the whole file for the line number.
        info->eip_fn_addr = addr;
  100722:	8b 45 ec             	mov    -0x14(%ebp),%eax
  100725:	8b 4d e8             	mov    -0x18(%ebp),%ecx
  100728:	89 41 10             	mov    %eax,0x10(%ecx)
        lline = lfile;
  10072b:	8b 45 d4             	mov    -0x2c(%ebp),%eax
  10072e:	89 45 c4             	mov    %eax,-0x3c(%ebp)
        rline = rfile;
  100731:	8b 45 d0             	mov    -0x30(%ebp),%eax
  100734:	89 45 c0             	mov    %eax,-0x40(%ebp)
  100737:	b8 3a 00 00 00       	mov    $0x3a,%eax
    }
    info->eip_fn_namelen = strfind(info->eip_fn_name, ':') - info->eip_fn_name;
  10073c:	8b 4d e8             	mov    -0x18(%ebp),%ecx
  10073f:	8b 49 08             	mov    0x8(%ecx),%ecx
  100742:	89 0c 24             	mov    %ecx,(%esp)
  100745:	c7 44 24 04 3a 00 00 	movl   $0x3a,0x4(%esp)
  10074c:	00 
  10074d:	89 45 ac             	mov    %eax,-0x54(%ebp)
  100750:	e8 eb d9 00 00       	call   10e140 <strfind>
  100755:	8d 4d c4             	lea    -0x3c(%ebp),%ecx
  100758:	8d 55 c0             	lea    -0x40(%ebp),%edx
  10075b:	be 44 00 00 00       	mov    $0x44,%esi
  100760:	8b 7d e8             	mov    -0x18(%ebp),%edi
  100763:	8b 7f 08             	mov    0x8(%edi),%edi
  100766:	29 f8                	sub    %edi,%eax
  100768:	8b 7d e8             	mov    -0x18(%ebp),%edi
  10076b:	89 47 0c             	mov    %eax,0xc(%edi)

    // Search within [lline, rline] for the line number stab.
    // If found, set info->eip_line to the right line number.
    // If not found, return -1.
    stab_binsearch(stabs, &lline, &rline, N_SLINE, addr);
  10076e:	8b 45 e4             	mov    -0x1c(%ebp),%eax
  100771:	8b 7d ec             	mov    -0x14(%ebp),%edi
  100774:	89 04 24             	mov    %eax,(%esp)
  100777:	89 4c 24 04          	mov    %ecx,0x4(%esp)
  10077b:	89 54 24 08          	mov    %edx,0x8(%esp)
  10077f:	c7 44 24 0c 44 00 00 	movl   $0x44,0xc(%esp)
  100786:	00 
  100787:	89 7c 24 10          	mov    %edi,0x10(%esp)
  10078b:	89 75 a8             	mov    %esi,-0x58(%ebp)
  10078e:	e8 7d 01 00 00       	call   100910 <stab_binsearch>
    if (lline <= rline) {
  100793:	8b 45 c4             	mov    -0x3c(%ebp),%eax
  100796:	3b 45 c0             	cmp    -0x40(%ebp),%eax
  100799:	0f 8f 18 00 00 00    	jg     1007b7 <debuginfo_eip+0x247>
        info->eip_line = stabs[rline].n_desc;
  10079f:	8b 45 c0             	mov    -0x40(%ebp),%eax
  1007a2:	6b c0 0c             	imul   $0xc,%eax,%eax
  1007a5:	03 45 e4             	add    -0x1c(%ebp),%eax
  1007a8:	0f b7 40 06          	movzwl 0x6(%eax),%eax
  1007ac:	8b 4d e8             	mov    -0x18(%ebp),%ecx
  1007af:	89 41 04             	mov    %eax,0x4(%ecx)
    } else {
  1007b2:	e9 0c 00 00 00       	jmp    1007c3 <debuginfo_eip+0x253>
        return -1;
  1007b7:	c7 45 f0 ff ff ff ff 	movl   $0xffffffff,-0x10(%ebp)
  1007be:	e9 3c 01 00 00       	jmp    1008ff <debuginfo_eip+0x38f>

    // Search backwards from the line number for the relevant filename stab.
    // We can't just use the "lfile" stab because inlined functions
    // can interpolate code from a different file!
    // Such included source files use the N_SOL stab type.
    while (lline >= lfile
  1007c3:	e9 00 00 00 00       	jmp    1007c8 <debuginfo_eip+0x258>
  1007c8:	31 c0                	xor    %eax,%eax
  1007ca:	88 c1                	mov    %al,%cl
  1007cc:	8b 45 c4             	mov    -0x3c(%ebp),%eax
  1007cf:	3b 45 d4             	cmp    -0x2c(%ebp),%eax
           && stabs[lline].n_type != N_SOL
  1007d2:	88 4d a7             	mov    %cl,-0x59(%ebp)
  1007d5:	0f 8c 56 00 00 00    	jl     100831 <debuginfo_eip+0x2c1>
  1007db:	31 c0                	xor    %eax,%eax
  1007dd:	88 c1                	mov    %al,%cl
  1007df:	8b 45 c4             	mov    -0x3c(%ebp),%eax
  1007e2:	6b c0 0c             	imul   $0xc,%eax,%eax
  1007e5:	03 45 e4             	add    -0x1c(%ebp),%eax
  1007e8:	0f b6 40 04          	movzbl 0x4(%eax),%eax
  1007ec:	3d 84 00 00 00       	cmp    $0x84,%eax
           && (stabs[lline].n_type != N_SO || !stabs[lline].n_value)) {
  1007f1:	88 4d a7             	mov    %cl,-0x59(%ebp)
  1007f4:	0f 84 37 00 00 00    	je     100831 <debuginfo_eip+0x2c1>
  1007fa:	b0 01                	mov    $0x1,%al
  1007fc:	8b 4d c4             	mov    -0x3c(%ebp),%ecx
  1007ff:	6b c9 0c             	imul   $0xc,%ecx,%ecx
  100802:	03 4d e4             	add    -0x1c(%ebp),%ecx
  100805:	0f b6 49 04          	movzbl 0x4(%ecx),%ecx
  100809:	83 f9 64             	cmp    $0x64,%ecx
  10080c:	88 45 a6             	mov    %al,-0x5a(%ebp)
  10080f:	0f 85 16 00 00 00    	jne    10082b <debuginfo_eip+0x2bb>
  100815:	8b 45 c4             	mov    -0x3c(%ebp),%eax
  100818:	6b c0 0c             	imul   $0xc,%eax,%eax
  10081b:	03 45 e4             	add    -0x1c(%ebp),%eax
  10081e:	83 78 08 00          	cmpl   $0x0,0x8(%eax)
  100822:	0f 95 c1             	setne  %cl
  100825:	80 f1 ff             	xor    $0xff,%cl
  100828:	88 4d a6             	mov    %cl,-0x5a(%ebp)
  10082b:	8a 45 a6             	mov    -0x5a(%ebp),%al
  10082e:	88 45 a7             	mov    %al,-0x59(%ebp)
  100831:	8a 45 a7             	mov    -0x59(%ebp),%al
    while (lline >= lfile
  100834:	a8 01                	test   $0x1,%al
  100836:	0f 85 05 00 00 00    	jne    100841 <debuginfo_eip+0x2d1>
  10083c:	e9 0e 00 00 00       	jmp    10084f <debuginfo_eip+0x2df>
        lline --;
  100841:	8b 45 c4             	mov    -0x3c(%ebp),%eax
  100844:	83 c0 ff             	add    $0xffffffff,%eax
  100847:	89 45 c4             	mov    %eax,-0x3c(%ebp)
    while (lline >= lfile
  10084a:	e9 79 ff ff ff       	jmp    1007c8 <debuginfo_eip+0x258>
    }
    if (lline >= lfile && stabs[lline].n_strx < stabstr_end - stabstr) {
  10084f:	8b 45 c4             	mov    -0x3c(%ebp),%eax
  100852:	3b 45 d4             	cmp    -0x2c(%ebp),%eax
  100855:	0f 8c 2e 00 00 00    	jl     100889 <debuginfo_eip+0x319>
  10085b:	8b 45 c4             	mov    -0x3c(%ebp),%eax
  10085e:	6b c0 0c             	imul   $0xc,%eax,%eax
  100861:	03 45 e4             	add    -0x1c(%ebp),%eax
  100864:	8b 00                	mov    (%eax),%eax
  100866:	8b 4d d8             	mov    -0x28(%ebp),%ecx
  100869:	8b 55 dc             	mov    -0x24(%ebp),%edx
  10086c:	29 d1                	sub    %edx,%ecx
  10086e:	39 c8                	cmp    %ecx,%eax
  100870:	0f 83 13 00 00 00    	jae    100889 <debuginfo_eip+0x319>
        info->eip_file = stabstr + stabs[lline].n_strx;
  100876:	8b 45 dc             	mov    -0x24(%ebp),%eax
  100879:	8b 4d c4             	mov    -0x3c(%ebp),%ecx
  10087c:	6b c9 0c             	imul   $0xc,%ecx,%ecx
  10087f:	03 4d e4             	add    -0x1c(%ebp),%ecx
  100882:	03 01                	add    (%ecx),%eax
  100884:	8b 4d e8             	mov    -0x18(%ebp),%ecx
  100887:	89 01                	mov    %eax,(%ecx)
    }

    // Set eip_fn_narg to the number of arguments taken by the function,
    // or 0 if there was no containing function.
    if (lfun < rfun) {
  100889:	8b 45 cc             	mov    -0x34(%ebp),%eax
  10088c:	3b 45 c8             	cmp    -0x38(%ebp),%eax
  10088f:	0f 8d 63 00 00 00    	jge    1008f8 <debuginfo_eip+0x388>
        for (lline = lfun + 1;
  100895:	8b 45 cc             	mov    -0x34(%ebp),%eax
  100898:	83 c0 01             	add    $0x1,%eax
  10089b:	89 45 c4             	mov    %eax,-0x3c(%ebp)
  10089e:	31 c0                	xor    %eax,%eax
  1008a0:	88 c1                	mov    %al,%cl
             lline < rfun && stabs[lline].n_type == N_PSYM;
  1008a2:	8b 45 c4             	mov    -0x3c(%ebp),%eax
  1008a5:	3b 45 c8             	cmp    -0x38(%ebp),%eax
  1008a8:	88 4d a5             	mov    %cl,-0x5b(%ebp)
  1008ab:	0f 8d 18 00 00 00    	jge    1008c9 <debuginfo_eip+0x359>
  1008b1:	8b 45 c4             	mov    -0x3c(%ebp),%eax
  1008b4:	6b c0 0c             	imul   $0xc,%eax,%eax
  1008b7:	03 45 e4             	add    -0x1c(%ebp),%eax
  1008ba:	0f b6 40 04          	movzbl 0x4(%eax),%eax
  1008be:	3d a0 00 00 00       	cmp    $0xa0,%eax
  1008c3:	0f 94 c1             	sete   %cl
  1008c6:	88 4d a5             	mov    %cl,-0x5b(%ebp)
  1008c9:	8a 45 a5             	mov    -0x5b(%ebp),%al
        for (lline = lfun + 1;
  1008cc:	a8 01                	test   $0x1,%al
  1008ce:	0f 85 05 00 00 00    	jne    1008d9 <debuginfo_eip+0x369>
  1008d4:	e9 1a 00 00 00       	jmp    1008f3 <debuginfo_eip+0x383>
             lline ++) {
            info->eip_fn_narg ++;
  1008d9:	8b 45 e8             	mov    -0x18(%ebp),%eax
  1008dc:	8b 48 14             	mov    0x14(%eax),%ecx
  1008df:	83 c1 01             	add    $0x1,%ecx
  1008e2:	89 48 14             	mov    %ecx,0x14(%eax)
             lline ++) {
  1008e5:	8b 45 c4             	mov    -0x3c(%ebp),%eax
  1008e8:	83 c0 01             	add    $0x1,%eax
  1008eb:	89 45 c4             	mov    %eax,-0x3c(%ebp)
        for (lline = lfun + 1;
  1008ee:	e9 ab ff ff ff       	jmp    10089e <debuginfo_eip+0x32e>
        }
    }
  1008f3:	e9 00 00 00 00       	jmp    1008f8 <debuginfo_eip+0x388>
    return 0;
  1008f8:	c7 45 f0 00 00 00 00 	movl   $0x0,-0x10(%ebp)
}
  1008ff:	8b 45 f0             	mov    -0x10(%ebp),%eax
  100902:	83 c4 6c             	add    $0x6c,%esp
  100905:	5e                   	pop    %esi
  100906:	5f                   	pop    %edi
  100907:	5b                   	pop    %ebx
  100908:	5d                   	pop    %ebp
  100909:	c3                   	ret    
  10090a:	66 0f 1f 44 00 00    	nopw   0x0(%eax,%eax,1)

00100910 <stab_binsearch>:
           int type, uintptr_t addr) {
  100910:	55                   	push   %ebp
  100911:	89 e5                	mov    %esp,%ebp
  100913:	57                   	push   %edi
  100914:	56                   	push   %esi
  100915:	83 ec 30             	sub    $0x30,%esp
  100918:	8b 45 18             	mov    0x18(%ebp),%eax
  10091b:	8b 4d 14             	mov    0x14(%ebp),%ecx
  10091e:	8b 55 10             	mov    0x10(%ebp),%edx
  100921:	8b 75 0c             	mov    0xc(%ebp),%esi
  100924:	8b 7d 08             	mov    0x8(%ebp),%edi
  100927:	89 7d f4             	mov    %edi,-0xc(%ebp)
  10092a:	89 75 f0             	mov    %esi,-0x10(%ebp)
  10092d:	89 55 ec             	mov    %edx,-0x14(%ebp)
  100930:	89 4d e8             	mov    %ecx,-0x18(%ebp)
  100933:	89 45 e4             	mov    %eax,-0x1c(%ebp)
    int l = *region_left, r = *region_right, any_matches = 0;
  100936:	8b 45 f0             	mov    -0x10(%ebp),%eax
  100939:	8b 00                	mov    (%eax),%eax
  10093b:	89 45 e0             	mov    %eax,-0x20(%ebp)
  10093e:	8b 45 ec             	mov    -0x14(%ebp),%eax
  100941:	8b 00                	mov    (%eax),%eax
  100943:	89 45 dc             	mov    %eax,-0x24(%ebp)
  100946:	c7 45 d8 00 00 00 00 	movl   $0x0,-0x28(%ebp)
    while (l <= r) {
  10094d:	8b 45 e0             	mov    -0x20(%ebp),%eax
  100950:	3b 45 dc             	cmp    -0x24(%ebp),%eax
  100953:	0f 8f 01 01 00 00    	jg     100a5a <stab_binsearch+0x14a>
  100959:	b8 02 00 00 00       	mov    $0x2,%eax
        int true_m = (l + r) / 2, m = true_m;
  10095e:	8b 4d e0             	mov    -0x20(%ebp),%ecx
  100961:	03 4d dc             	add    -0x24(%ebp),%ecx
  100964:	89 45 cc             	mov    %eax,-0x34(%ebp)
  100967:	89 c8                	mov    %ecx,%eax
  100969:	99                   	cltd   
  10096a:	8b 4d cc             	mov    -0x34(%ebp),%ecx
  10096d:	f7 f9                	idiv   %ecx
  10096f:	89 45 d4             	mov    %eax,-0x2c(%ebp)
  100972:	8b 45 d4             	mov    -0x2c(%ebp),%eax
  100975:	89 45 d0             	mov    %eax,-0x30(%ebp)
  100978:	31 c0                	xor    %eax,%eax
  10097a:	88 c1                	mov    %al,%cl
        while (m >= l && stabs[m].n_type != type) {
  10097c:	8b 45 d0             	mov    -0x30(%ebp),%eax
  10097f:	3b 45 e0             	cmp    -0x20(%ebp),%eax
  100982:	88 4d cb             	mov    %cl,-0x35(%ebp)
  100985:	0f 8c 16 00 00 00    	jl     1009a1 <stab_binsearch+0x91>
  10098b:	8b 45 d0             	mov    -0x30(%ebp),%eax
  10098e:	6b c0 0c             	imul   $0xc,%eax,%eax
  100991:	03 45 f4             	add    -0xc(%ebp),%eax
  100994:	0f b6 40 04          	movzbl 0x4(%eax),%eax
  100998:	3b 45 e8             	cmp    -0x18(%ebp),%eax
  10099b:	0f 95 c1             	setne  %cl
  10099e:	88 4d cb             	mov    %cl,-0x35(%ebp)
  1009a1:	8a 45 cb             	mov    -0x35(%ebp),%al
  1009a4:	a8 01                	test   $0x1,%al
  1009a6:	0f 85 05 00 00 00    	jne    1009b1 <stab_binsearch+0xa1>
  1009ac:	e9 0e 00 00 00       	jmp    1009bf <stab_binsearch+0xaf>
            m --;
  1009b1:	8b 45 d0             	mov    -0x30(%ebp),%eax
  1009b4:	83 c0 ff             	add    $0xffffffff,%eax
  1009b7:	89 45 d0             	mov    %eax,-0x30(%ebp)
        while (m >= l && stabs[m].n_type != type) {
  1009ba:	e9 b9 ff ff ff       	jmp    100978 <stab_binsearch+0x68>
        if (m < l) {    // no match in [l, m]
  1009bf:	8b 45 d0             	mov    -0x30(%ebp),%eax
  1009c2:	3b 45 e0             	cmp    -0x20(%ebp),%eax
  1009c5:	0f 8d 0e 00 00 00    	jge    1009d9 <stab_binsearch+0xc9>
            l = true_m + 1;
  1009cb:	8b 45 d4             	mov    -0x2c(%ebp),%eax
  1009ce:	83 c0 01             	add    $0x1,%eax
  1009d1:	89 45 e0             	mov    %eax,-0x20(%ebp)
            continue;
  1009d4:	e9 74 ff ff ff       	jmp    10094d <stab_binsearch+0x3d>
        any_matches = 1;
  1009d9:	c7 45 d8 01 00 00 00 	movl   $0x1,-0x28(%ebp)
        if (stabs[m].n_value < addr) {
  1009e0:	8b 45 d0             	mov    -0x30(%ebp),%eax
  1009e3:	6b c0 0c             	imul   $0xc,%eax,%eax
  1009e6:	03 45 f4             	add    -0xc(%ebp),%eax
  1009e9:	8b 40 08             	mov    0x8(%eax),%eax
  1009ec:	3b 45 e4             	cmp    -0x1c(%ebp),%eax
  1009ef:	0f 83 16 00 00 00    	jae    100a0b <stab_binsearch+0xfb>
            *region_left = m;
  1009f5:	8b 45 d0             	mov    -0x30(%ebp),%eax
  1009f8:	8b 4d f0             	mov    -0x10(%ebp),%ecx
  1009fb:	89 01                	mov    %eax,(%ecx)
            l = true_m + 1;
  1009fd:	8b 45 d4             	mov    -0x2c(%ebp),%eax
  100a00:	83 c0 01             	add    $0x1,%eax
  100a03:	89 45 e0             	mov    %eax,-0x20(%ebp)
        } else if (stabs[m].n_value > addr) {
  100a06:	e9 4a 00 00 00       	jmp    100a55 <stab_binsearch+0x145>
  100a0b:	8b 45 d0             	mov    -0x30(%ebp),%eax
  100a0e:	6b c0 0c             	imul   $0xc,%eax,%eax
  100a11:	03 45 f4             	add    -0xc(%ebp),%eax
  100a14:	8b 40 08             	mov    0x8(%eax),%eax
  100a17:	3b 45 e4             	cmp    -0x1c(%ebp),%eax
  100a1a:	0f 86 19 00 00 00    	jbe    100a39 <stab_binsearch+0x129>
            *region_right = m - 1;
  100a20:	8b 45 d0             	mov    -0x30(%ebp),%eax
  100a23:	83 e8 01             	sub    $0x1,%eax
  100a26:	8b 4d ec             	mov    -0x14(%ebp),%ecx
  100a29:	89 01                	mov    %eax,(%ecx)
            r = m - 1;
  100a2b:	8b 45 d0             	mov    -0x30(%ebp),%eax
  100a2e:	83 e8 01             	sub    $0x1,%eax
  100a31:	89 45 dc             	mov    %eax,-0x24(%ebp)
        } else {
  100a34:	e9 17 00 00 00       	jmp    100a50 <stab_binsearch+0x140>
            *region_left = m;
  100a39:	8b 45 d0             	mov    -0x30(%ebp),%eax
  100a3c:	8b 4d f0             	mov    -0x10(%ebp),%ecx
  100a3f:	89 01                	mov    %eax,(%ecx)
            l = m;
  100a41:	8b 45 d0             	mov    -0x30(%ebp),%eax
  100a44:	89 45 e0             	mov    %eax,-0x20(%ebp)
            addr ++;
  100a47:	8b 45 e4             	mov    -0x1c(%ebp),%eax
  100a4a:	83 c0 01             	add    $0x1,%eax
  100a4d:	89 45 e4             	mov    %eax,-0x1c(%ebp)
  100a50:	e9 00 00 00 00       	jmp    100a55 <stab_binsearch+0x145>
    while (l <= r) {
  100a55:	e9 f3 fe ff ff       	jmp    10094d <stab_binsearch+0x3d>
    if (!any_matches) {
  100a5a:	83 7d d8 00          	cmpl   $0x0,-0x28(%ebp)
  100a5e:	0f 85 12 00 00 00    	jne    100a76 <stab_binsearch+0x166>
        *region_right = *region_left - 1;
  100a64:	8b 45 f0             	mov    -0x10(%ebp),%eax
  100a67:	8b 00                	mov    (%eax),%eax
  100a69:	83 e8 01             	sub    $0x1,%eax
  100a6c:	8b 4d ec             	mov    -0x14(%ebp),%ecx
  100a6f:	89 01                	mov    %eax,(%ecx)
    }
  100a71:	e9 5e 00 00 00       	jmp    100ad4 <stab_binsearch+0x1c4>
        l = *region_right;
  100a76:	8b 45 ec             	mov    -0x14(%ebp),%eax
  100a79:	8b 00                	mov    (%eax),%eax
  100a7b:	89 45 e0             	mov    %eax,-0x20(%ebp)
  100a7e:	31 c0                	xor    %eax,%eax
  100a80:	88 c1                	mov    %al,%cl
        for (; l > *region_left && stabs[l].n_type != type; l --)
  100a82:	8b 45 e0             	mov    -0x20(%ebp),%eax
  100a85:	8b 55 f0             	mov    -0x10(%ebp),%edx
  100a88:	3b 02                	cmp    (%edx),%eax
  100a8a:	88 4d ca             	mov    %cl,-0x36(%ebp)
  100a8d:	0f 8e 16 00 00 00    	jle    100aa9 <stab_binsearch+0x199>
  100a93:	8b 45 e0             	mov    -0x20(%ebp),%eax
  100a96:	6b c0 0c             	imul   $0xc,%eax,%eax
  100a99:	03 45 f4             	add    -0xc(%ebp),%eax
  100a9c:	0f b6 40 04          	movzbl 0x4(%eax),%eax
  100aa0:	3b 45 e8             	cmp    -0x18(%ebp),%eax
  100aa3:	0f 95 c1             	setne  %cl
  100aa6:	88 4d ca             	mov    %cl,-0x36(%ebp)
  100aa9:	8a 45 ca             	mov    -0x36(%ebp),%al
  100aac:	a8 01                	test   $0x1,%al
  100aae:	0f 85 05 00 00 00    	jne    100ab9 <stab_binsearch+0x1a9>
  100ab4:	e9 13 00 00 00       	jmp    100acc <stab_binsearch+0x1bc>
  100ab9:	e9 00 00 00 00       	jmp    100abe <stab_binsearch+0x1ae>
  100abe:	8b 45 e0             	mov    -0x20(%ebp),%eax
  100ac1:	83 c0 ff             	add    $0xffffffff,%eax
  100ac4:	89 45 e0             	mov    %eax,-0x20(%ebp)
  100ac7:	e9 b2 ff ff ff       	jmp    100a7e <stab_binsearch+0x16e>
        *region_left = l;
  100acc:	8b 45 e0             	mov    -0x20(%ebp),%eax
  100acf:	8b 4d f0             	mov    -0x10(%ebp),%ecx
  100ad2:	89 01                	mov    %eax,(%ecx)
}
  100ad4:	83 c4 30             	add    $0x30,%esp
  100ad7:	5e                   	pop    %esi
  100ad8:	5f                   	pop    %edi
  100ad9:	5d                   	pop    %ebp
  100ada:	c3                   	ret    
  100adb:	0f 1f 44 00 00       	nopl   0x0(%eax,%eax,1)

00100ae0 <print_kerninfo>:
 * print_kerninfo - print the information about kernel, including the location
 * of kernel entry, the start addresses of data and text segements, the start
 * address of free memory and how many memory that kernel has used.
 * */
void
print_kerninfo(void) {
  100ae0:	55                   	push   %ebp
  100ae1:	89 e5                	mov    %esp,%ebp
  100ae3:	53                   	push   %ebx
  100ae4:	57                   	push   %edi
  100ae5:	56                   	push   %esi
  100ae6:	83 ec 2c             	sub    $0x2c,%esp
  100ae9:	8d 05 41 f1 10 00    	lea    0x10f141,%eax
    extern char etext[], edata[], end[], kern_init[];
    cprintf("Special kernel symbols:\n");
  100aef:	89 04 24             	mov    %eax,(%esp)
  100af2:	e8 49 f7 ff ff       	call   100240 <cprintf>
  100af7:	8d 0d 5a f1 10 00    	lea    0x10f15a,%ecx
  100afd:	8d 15 30 00 10 00    	lea    0x100030,%edx
    cprintf("  entry  0x%08x (phys)\n", kern_init);
  100b03:	89 0c 24             	mov    %ecx,(%esp)
  100b06:	89 54 24 04          	mov    %edx,0x4(%esp)
  100b0a:	89 45 f0             	mov    %eax,-0x10(%ebp)
  100b0d:	e8 2e f7 ff ff       	call   100240 <cprintf>
  100b12:	8d 0d 72 f1 10 00    	lea    0x10f172,%ecx
  100b18:	8d 15 d9 f0 10 00    	lea    0x10f0d9,%edx
    cprintf("  etext  0x%08x (phys)\n", etext);
  100b1e:	89 0c 24             	mov    %ecx,(%esp)
  100b21:	89 54 24 04          	mov    %edx,0x4(%esp)
  100b25:	89 45 ec             	mov    %eax,-0x14(%ebp)
  100b28:	e8 13 f7 ff ff       	call   100240 <cprintf>
  100b2d:	8d 0d 8a f1 10 00    	lea    0x10f18a,%ecx
  100b33:	8d 15 04 3a 11 00    	lea    0x113a04,%edx
    cprintf("  edata  0x%08x (phys)\n", edata);
  100b39:	89 0c 24             	mov    %ecx,(%esp)
  100b3c:	89 54 24 04          	mov    %edx,0x4(%esp)
  100b40:	89 45 e8             	mov    %eax,-0x18(%ebp)
  100b43:	e8 f8 f6 ff ff       	call   100240 <cprintf>
  100b48:	8d 0d a2 f1 10 00    	lea    0x10f1a2,%ecx
  100b4e:	8d 15 3c 49 11 00    	lea    0x11493c,%edx
    cprintf("  end    0x%08x (phys)\n", end);
  100b54:	89 0c 24             	mov    %ecx,(%esp)
  100b57:	89 54 24 04          	mov    %edx,0x4(%esp)
  100b5b:	89 45 e4             	mov    %eax,-0x1c(%ebp)
  100b5e:	e8 dd f6 ff ff       	call   100240 <cprintf>
  100b63:	8d 0d ba f1 10 00    	lea    0x10f1ba,%ecx
  100b69:	8d 15 3c 49 11 00    	lea    0x11493c,%edx
  100b6f:	8d 35 30 00 10 00    	lea    0x100030,%esi
  100b75:	29 f2                	sub    %esi,%edx
  100b77:	81 c2 ff 03 00 00    	add    $0x3ff,%edx
  100b7d:	be 00 04 00 00       	mov    $0x400,%esi
    cprintf("Kernel executable memory footprint: %dKB\n", (end - kern_init + 1023)/1024);
  100b82:	bf 30 00 10 00       	mov    $0x100030,%edi
  100b87:	bb 3c 49 11 00       	mov    $0x11493c,%ebx
  100b8c:	29 fb                	sub    %edi,%ebx
  100b8e:	89 df                	mov    %ebx,%edi
  100b90:	81 c7 ff 03 00 00    	add    $0x3ff,%edi
  100b96:	c1 ff 1f             	sar    $0x1f,%edi
  100b99:	c1 ef 16             	shr    $0x16,%edi
  100b9c:	8d bc 3b ff 03 00 00 	lea    0x3ff(%ebx,%edi,1),%edi
  100ba3:	c1 ff 0a             	sar    $0xa,%edi
  100ba6:	89 e3                	mov    %esp,%ebx
  100ba8:	89 7b 04             	mov    %edi,0x4(%ebx)
  100bab:	c7 03 ba f1 10 00    	movl   $0x10f1ba,(%ebx)
  100bb1:	89 45 e0             	mov    %eax,-0x20(%ebp)
  100bb4:	89 4d dc             	mov    %ecx,-0x24(%ebp)
  100bb7:	89 55 d8             	mov    %edx,-0x28(%ebp)
  100bba:	89 75 d4             	mov    %esi,-0x2c(%ebp)
  100bbd:	e8 7e f6 ff ff       	call   100240 <cprintf>
}
  100bc2:	89 45 d0             	mov    %eax,-0x30(%ebp)
  100bc5:	83 c4 2c             	add    $0x2c,%esp
  100bc8:	5e                   	pop    %esi
  100bc9:	5f                   	pop    %edi
  100bca:	5b                   	pop    %ebx
  100bcb:	5d                   	pop    %ebp
  100bcc:	c3                   	ret    
  100bcd:	0f 1f 00             	nopl   (%eax)

00100bd0 <print_debuginfo>:
/* *
 * print_debuginfo - read and print the stat information for the address @eip,
 * and info.eip_fn_addr should be the first address of the related function.
 * */
void
print_debuginfo(uintptr_t eip) {
  100bd0:	55                   	push   %ebp
  100bd1:	89 e5                	mov    %esp,%ebp
  100bd3:	57                   	push   %edi
  100bd4:	56                   	push   %esi
  100bd5:	81 ec 40 01 00 00    	sub    $0x140,%esp
  100bdb:	8b 45 08             	mov    0x8(%ebp),%eax
  100bde:	8d 4d d8             	lea    -0x28(%ebp),%ecx
  100be1:	89 45 f4             	mov    %eax,-0xc(%ebp)
    struct eipdebuginfo info;
    if (debuginfo_eip(eip, &info) != 0) {
  100be4:	8b 45 f4             	mov    -0xc(%ebp),%eax
  100be7:	89 04 24             	mov    %eax,(%esp)
  100bea:	89 4c 24 04          	mov    %ecx,0x4(%esp)
  100bee:	e8 7d f9 ff ff       	call   100570 <debuginfo_eip>
  100bf3:	83 f8 00             	cmp    $0x0,%eax
  100bf6:	0f 84 20 00 00 00    	je     100c1c <print_debuginfo+0x4c>
  100bfc:	8d 05 e4 f1 10 00    	lea    0x10f1e4,%eax
        cprintf("    <unknow>: -- 0x%08x --\n", eip);
  100c02:	8b 4d f4             	mov    -0xc(%ebp),%ecx
  100c05:	89 04 24             	mov    %eax,(%esp)
  100c08:	89 4c 24 04          	mov    %ecx,0x4(%esp)
  100c0c:	e8 2f f6 ff ff       	call   100240 <cprintf>
    }
  100c11:	89 85 d0 fe ff ff    	mov    %eax,-0x130(%ebp)
  100c17:	e9 8a 00 00 00       	jmp    100ca6 <print_debuginfo+0xd6>
    else {
        char fnname[256];
        int j;
        for (j = 0; j < info.eip_fn_namelen; j ++) {
  100c1c:	c7 85 d4 fe ff ff 00 	movl   $0x0,-0x12c(%ebp)
  100c23:	00 00 00 
  100c26:	8b 85 d4 fe ff ff    	mov    -0x12c(%ebp),%eax
  100c2c:	3b 45 e4             	cmp    -0x1c(%ebp),%eax
  100c2f:	0f 8d 2d 00 00 00    	jge    100c62 <print_debuginfo+0x92>
            fnname[j] = info.eip_fn_name[j];
  100c35:	8b 85 d4 fe ff ff    	mov    -0x12c(%ebp),%eax
  100c3b:	8b 4d e0             	mov    -0x20(%ebp),%ecx
  100c3e:	8a 14 01             	mov    (%ecx,%eax,1),%dl
  100c41:	8b 85 d4 fe ff ff    	mov    -0x12c(%ebp),%eax
  100c47:	88 94 05 d8 fe ff ff 	mov    %dl,-0x128(%ebp,%eax,1)
        for (j = 0; j < info.eip_fn_namelen; j ++) {
  100c4e:	8b 85 d4 fe ff ff    	mov    -0x12c(%ebp),%eax
  100c54:	83 c0 01             	add    $0x1,%eax
  100c57:	89 85 d4 fe ff ff    	mov    %eax,-0x12c(%ebp)
  100c5d:	e9 c4 ff ff ff       	jmp    100c26 <print_debuginfo+0x56>
  100c62:	8d 05 00 f2 10 00    	lea    0x10f200,%eax
  100c68:	8d 8d d8 fe ff ff    	lea    -0x128(%ebp),%ecx
        }
        fnname[j] = '\0';
  100c6e:	8b 95 d4 fe ff ff    	mov    -0x12c(%ebp),%edx
  100c74:	c6 84 15 d8 fe ff ff 	movb   $0x0,-0x128(%ebp,%edx,1)
  100c7b:	00 
        cprintf("    %s:%d: %s+%d\n", info.eip_file, info.eip_line,
  100c7c:	8b 55 d8             	mov    -0x28(%ebp),%edx
  100c7f:	8b 75 dc             	mov    -0x24(%ebp),%esi
                fnname, eip - info.eip_fn_addr);
  100c82:	8b 7d f4             	mov    -0xc(%ebp),%edi
  100c85:	2b 7d e8             	sub    -0x18(%ebp),%edi
        cprintf("    %s:%d: %s+%d\n", info.eip_file, info.eip_line,
  100c88:	89 04 24             	mov    %eax,(%esp)
  100c8b:	89 54 24 04          	mov    %edx,0x4(%esp)
  100c8f:	89 74 24 08          	mov    %esi,0x8(%esp)
  100c93:	89 4c 24 0c          	mov    %ecx,0xc(%esp)
  100c97:	89 7c 24 10          	mov    %edi,0x10(%esp)
  100c9b:	e8 a0 f5 ff ff       	call   100240 <cprintf>
  100ca0:	89 85 cc fe ff ff    	mov    %eax,-0x134(%ebp)
    }
}
  100ca6:	81 c4 40 01 00 00    	add    $0x140,%esp
  100cac:	5e                   	pop    %esi
  100cad:	5f                   	pop    %edi
  100cae:	5d                   	pop    %ebp
  100caf:	c3                   	ret    

00100cb0 <print_stackframe>:
 *
 * Note that, the length of ebp-chain is limited. In boot/bootasm.S, before jumping
 * to the kernel entry, the value of ebp has been set to zero, that's the boundary.
 * */
void
print_stackframe(void) {
  100cb0:	55                   	push   %ebp
  100cb1:	89 e5                	mov    %esp,%ebp
      *    (3.4) call print_debuginfo(eip-1) to print the C calling function name and line number, etc.
      *    (3.5) popup a calling stackframe
      *           NOTICE: the calling funciton's return addr eip  = ss:[ebp+4]
      *                   the calling funciton's ebp = ss:[ebp]
      */
}
  100cb3:	5d                   	pop    %ebp
  100cb4:	c3                   	ret    
  100cb5:	66 90                	xchg   %ax,%ax
  100cb7:	66 90                	xchg   %ax,%ax
  100cb9:	66 90                	xchg   %ax,%ax
  100cbb:	66 90                	xchg   %ax,%ax
  100cbd:	66 90                	xchg   %ax,%ax
  100cbf:	90                   	nop

00100cc0 <kmonitor>:
}

/***** Implementations of basic kernel monitor commands *****/

void
kmonitor(struct trapframe *tf) {
  100cc0:	55                   	push   %ebp
  100cc1:	89 e5                	mov    %esp,%ebp
  100cc3:	83 ec 18             	sub    $0x18,%esp
  100cc6:	8b 45 08             	mov    0x8(%ebp),%eax
  100cc9:	8d 0d 12 f2 10 00    	lea    0x10f212,%ecx
  100ccf:	89 45 fc             	mov    %eax,-0x4(%ebp)
    cprintf("Welcome to the kernel debug monitor!!\n");
  100cd2:	89 0c 24             	mov    %ecx,(%esp)
  100cd5:	e8 66 f5 ff ff       	call   100240 <cprintf>
  100cda:	8d 0d 39 f2 10 00    	lea    0x10f239,%ecx
    cprintf("Type 'help' for a list of commands.\n");
  100ce0:	89 0c 24             	mov    %ecx,(%esp)
  100ce3:	89 45 f4             	mov    %eax,-0xc(%ebp)
  100ce6:	e8 55 f5 ff ff       	call   100240 <cprintf>

    if (tf != NULL) {
  100ceb:	83 7d fc 00          	cmpl   $0x0,-0x4(%ebp)
  100cef:	89 45 f0             	mov    %eax,-0x10(%ebp)
  100cf2:	0f 84 0b 00 00 00    	je     100d03 <kmonitor+0x43>
        print_trapframe(tf);
  100cf8:	8b 45 fc             	mov    -0x4(%ebp),%eax
  100cfb:	89 04 24             	mov    %eax,(%esp)
  100cfe:	e8 1d 13 00 00       	call   102020 <print_trapframe>
  100d03:	8d 05 5e f2 10 00    	lea    0x10f25e,%eax
    }

    char *buf;
    while (1) {
        if ((buf = readline("K> ")) != NULL) {
  100d09:	89 04 24             	mov    %eax,(%esp)
  100d0c:	e8 1f f6 ff ff       	call   100330 <readline>
  100d11:	89 45 f8             	mov    %eax,-0x8(%ebp)
  100d14:	83 f8 00             	cmp    $0x0,%eax
  100d17:	0f 84 25 00 00 00    	je     100d42 <kmonitor+0x82>
            if (runcmd(buf, tf) < 0) {
  100d1d:	8b 45 f8             	mov    -0x8(%ebp),%eax
  100d20:	8b 4d fc             	mov    -0x4(%ebp),%ecx
  100d23:	89 04 24             	mov    %eax,(%esp)
  100d26:	89 4c 24 04          	mov    %ecx,0x4(%esp)
  100d2a:	e8 21 00 00 00       	call   100d50 <runcmd>
  100d2f:	83 f8 00             	cmp    $0x0,%eax
  100d32:	0f 8d 05 00 00 00    	jge    100d3d <kmonitor+0x7d>
                break;
  100d38:	e9 0a 00 00 00       	jmp    100d47 <kmonitor+0x87>
            }
        }
  100d3d:	e9 00 00 00 00       	jmp    100d42 <kmonitor+0x82>
    while (1) {
  100d42:	e9 bc ff ff ff       	jmp    100d03 <kmonitor+0x43>
    }
}
  100d47:	83 c4 18             	add    $0x18,%esp
  100d4a:	5d                   	pop    %ebp
  100d4b:	c3                   	ret    
  100d4c:	0f 1f 40 00          	nopl   0x0(%eax)

00100d50 <runcmd>:
runcmd(char *buf, struct trapframe *tf) {
  100d50:	55                   	push   %ebp
  100d51:	89 e5                	mov    %esp,%ebp
  100d53:	56                   	push   %esi
  100d54:	83 ec 64             	sub    $0x64,%esp
  100d57:	8b 45 0c             	mov    0xc(%ebp),%eax
  100d5a:	8b 4d 08             	mov    0x8(%ebp),%ecx
  100d5d:	8d 55 b0             	lea    -0x50(%ebp),%edx
  100d60:	89 4d f4             	mov    %ecx,-0xc(%ebp)
  100d63:	89 45 f0             	mov    %eax,-0x10(%ebp)
    int argc = parse(buf, argv);
  100d66:	8b 45 f4             	mov    -0xc(%ebp),%eax
  100d69:	89 04 24             	mov    %eax,(%esp)
  100d6c:	89 54 24 04          	mov    %edx,0x4(%esp)
  100d70:	e8 ab 01 00 00       	call   100f20 <parse>
  100d75:	89 45 ac             	mov    %eax,-0x54(%ebp)
    if (argc == 0) {
  100d78:	83 7d ac 00          	cmpl   $0x0,-0x54(%ebp)
  100d7c:	0f 85 0c 00 00 00    	jne    100d8e <runcmd+0x3e>
        return 0;
  100d82:	c7 45 f8 00 00 00 00 	movl   $0x0,-0x8(%ebp)
  100d89:	e9 9c 00 00 00       	jmp    100e2a <runcmd+0xda>
    for (i = 0; i < NCOMMANDS; i ++) {
  100d8e:	c7 45 a8 00 00 00 00 	movl   $0x0,-0x58(%ebp)
  100d95:	83 7d a8 03          	cmpl   $0x3,-0x58(%ebp)
  100d99:	0f 83 6c 00 00 00    	jae    100e0b <runcmd+0xbb>
  100d9f:	8d 05 20 30 11 00    	lea    0x113020,%eax
        if (strcmp(commands[i].name, argv[0]) == 0) {
  100da5:	6b 4d a8 0c          	imul   $0xc,-0x58(%ebp),%ecx
  100da9:	01 c8                	add    %ecx,%eax
  100dab:	8b 00                	mov    (%eax),%eax
  100dad:	8b 4d b0             	mov    -0x50(%ebp),%ecx
  100db0:	89 04 24             	mov    %eax,(%esp)
  100db3:	89 4c 24 04          	mov    %ecx,0x4(%esp)
  100db7:	e8 14 d2 00 00       	call   10dfd0 <strcmp>
  100dbc:	83 f8 00             	cmp    $0x0,%eax
  100dbf:	0f 85 33 00 00 00    	jne    100df8 <runcmd+0xa8>
  100dc5:	8d 45 b0             	lea    -0x50(%ebp),%eax
  100dc8:	8d 0d 20 30 11 00    	lea    0x113020,%ecx
            return commands[i].func(argc - 1, argv + 1, tf);
  100dce:	6b 55 a8 0c          	imul   $0xc,-0x58(%ebp),%edx
  100dd2:	01 d1                	add    %edx,%ecx
  100dd4:	8b 49 08             	mov    0x8(%ecx),%ecx
  100dd7:	8b 55 ac             	mov    -0x54(%ebp),%edx
  100dda:	83 ea 01             	sub    $0x1,%edx
  100ddd:	83 c0 04             	add    $0x4,%eax
  100de0:	8b 75 f0             	mov    -0x10(%ebp),%esi
  100de3:	89 14 24             	mov    %edx,(%esp)
  100de6:	89 44 24 04          	mov    %eax,0x4(%esp)
  100dea:	89 74 24 08          	mov    %esi,0x8(%esp)
  100dee:	ff d1                	call   *%ecx
  100df0:	89 45 f8             	mov    %eax,-0x8(%ebp)
  100df3:	e9 32 00 00 00       	jmp    100e2a <runcmd+0xda>
    }
  100df8:	e9 00 00 00 00       	jmp    100dfd <runcmd+0xad>
    for (i = 0; i < NCOMMANDS; i ++) {
  100dfd:	8b 45 a8             	mov    -0x58(%ebp),%eax
  100e00:	83 c0 01             	add    $0x1,%eax
  100e03:	89 45 a8             	mov    %eax,-0x58(%ebp)
  100e06:	e9 8a ff ff ff       	jmp    100d95 <runcmd+0x45>
  100e0b:	8d 05 6b f2 10 00    	lea    0x10f26b,%eax
    cprintf("Unknown command '%s'\n", argv[0]);
  100e11:	8b 4d b0             	mov    -0x50(%ebp),%ecx
  100e14:	89 04 24             	mov    %eax,(%esp)
  100e17:	89 4c 24 04          	mov    %ecx,0x4(%esp)
  100e1b:	e8 20 f4 ff ff       	call   100240 <cprintf>
    return 0;
  100e20:	c7 45 f8 00 00 00 00 	movl   $0x0,-0x8(%ebp)
  100e27:	89 45 a4             	mov    %eax,-0x5c(%ebp)
}
  100e2a:	8b 45 f8             	mov    -0x8(%ebp),%eax
  100e2d:	83 c4 64             	add    $0x64,%esp
  100e30:	5e                   	pop    %esi
  100e31:	5d                   	pop    %ebp
  100e32:	c3                   	ret    
  100e33:	66 66 66 66 2e 0f 1f 	data16 data16 data16 nopw %cs:0x0(%eax,%eax,1)
  100e3a:	84 00 00 00 00 00 

00100e40 <mon_help>:

/* mon_help - print the information about mon_* functions */
int
mon_help(int argc, char **argv, struct trapframe *tf) {
  100e40:	55                   	push   %ebp
  100e41:	89 e5                	mov    %esp,%ebp
  100e43:	56                   	push   %esi
  100e44:	83 ec 24             	sub    $0x24,%esp
  100e47:	8b 45 10             	mov    0x10(%ebp),%eax
  100e4a:	8b 4d 0c             	mov    0xc(%ebp),%ecx
  100e4d:	8b 55 08             	mov    0x8(%ebp),%edx
  100e50:	89 55 f8             	mov    %edx,-0x8(%ebp)
  100e53:	89 4d f4             	mov    %ecx,-0xc(%ebp)
  100e56:	89 45 f0             	mov    %eax,-0x10(%ebp)
    int i;
    for (i = 0; i < NCOMMANDS; i ++) {
  100e59:	c7 45 ec 00 00 00 00 	movl   $0x0,-0x14(%ebp)
  100e60:	83 7d ec 03          	cmpl   $0x3,-0x14(%ebp)
  100e64:	0f 83 40 00 00 00    	jae    100eaa <mon_help+0x6a>
  100e6a:	8d 05 62 f2 10 00    	lea    0x10f262,%eax
  100e70:	8d 0d 20 30 11 00    	lea    0x113020,%ecx
        cprintf("%s - %s\n", commands[i].name, commands[i].desc);
  100e76:	6b 55 ec 0c          	imul   $0xc,-0x14(%ebp),%edx
  100e7a:	89 ce                	mov    %ecx,%esi
  100e7c:	01 d6                	add    %edx,%esi
  100e7e:	8b 16                	mov    (%esi),%edx
  100e80:	6b 75 ec 0c          	imul   $0xc,-0x14(%ebp),%esi
  100e84:	01 f1                	add    %esi,%ecx
  100e86:	8b 49 04             	mov    0x4(%ecx),%ecx
  100e89:	89 04 24             	mov    %eax,(%esp)
  100e8c:	89 54 24 04          	mov    %edx,0x4(%esp)
  100e90:	89 4c 24 08          	mov    %ecx,0x8(%esp)
  100e94:	e8 a7 f3 ff ff       	call   100240 <cprintf>
  100e99:	89 45 e8             	mov    %eax,-0x18(%ebp)
    for (i = 0; i < NCOMMANDS; i ++) {
  100e9c:	8b 45 ec             	mov    -0x14(%ebp),%eax
  100e9f:	83 c0 01             	add    $0x1,%eax
  100ea2:	89 45 ec             	mov    %eax,-0x14(%ebp)
  100ea5:	e9 b6 ff ff ff       	jmp    100e60 <mon_help+0x20>
  100eaa:	31 c0                	xor    %eax,%eax
    }
    return 0;
  100eac:	83 c4 24             	add    $0x24,%esp
  100eaf:	5e                   	pop    %esi
  100eb0:	5d                   	pop    %ebp
  100eb1:	c3                   	ret    
  100eb2:	66 66 66 66 66 2e 0f 	data16 data16 data16 data16 nopw %cs:0x0(%eax,%eax,1)
  100eb9:	1f 84 00 00 00 00 00 

00100ec0 <mon_kerninfo>:
/* *
 * mon_kerninfo - call print_kerninfo in kern/debug/kdebug.c to
 * print the memory occupancy in kernel.
 * */
int
mon_kerninfo(int argc, char **argv, struct trapframe *tf) {
  100ec0:	55                   	push   %ebp
  100ec1:	89 e5                	mov    %esp,%ebp
  100ec3:	83 ec 18             	sub    $0x18,%esp
  100ec6:	8b 45 10             	mov    0x10(%ebp),%eax
  100ec9:	8b 4d 0c             	mov    0xc(%ebp),%ecx
  100ecc:	8b 55 08             	mov    0x8(%ebp),%edx
  100ecf:	89 55 fc             	mov    %edx,-0x4(%ebp)
  100ed2:	89 4d f8             	mov    %ecx,-0x8(%ebp)
  100ed5:	89 45 f4             	mov    %eax,-0xc(%ebp)
    print_kerninfo();
  100ed8:	e8 03 fc ff ff       	call   100ae0 <print_kerninfo>
  100edd:	31 c0                	xor    %eax,%eax
    return 0;
  100edf:	83 c4 18             	add    $0x18,%esp
  100ee2:	5d                   	pop    %ebp
  100ee3:	c3                   	ret    
  100ee4:	66 66 66 2e 0f 1f 84 	data16 data16 nopw %cs:0x0(%eax,%eax,1)
  100eeb:	00 00 00 00 00 

00100ef0 <mon_backtrace>:
/* *
 * mon_backtrace - call print_stackframe in kern/debug/kdebug.c to
 * print a backtrace of the stack.
 * */
int
mon_backtrace(int argc, char **argv, struct trapframe *tf) {
  100ef0:	55                   	push   %ebp
  100ef1:	89 e5                	mov    %esp,%ebp
  100ef3:	83 ec 18             	sub    $0x18,%esp
  100ef6:	8b 45 10             	mov    0x10(%ebp),%eax
  100ef9:	8b 4d 0c             	mov    0xc(%ebp),%ecx
  100efc:	8b 55 08             	mov    0x8(%ebp),%edx
  100eff:	89 55 fc             	mov    %edx,-0x4(%ebp)
  100f02:	89 4d f8             	mov    %ecx,-0x8(%ebp)
  100f05:	89 45 f4             	mov    %eax,-0xc(%ebp)
    print_stackframe();
  100f08:	e8 a3 fd ff ff       	call   100cb0 <print_stackframe>
  100f0d:	31 c0                	xor    %eax,%eax
    return 0;
  100f0f:	83 c4 18             	add    $0x18,%esp
  100f12:	5d                   	pop    %ebp
  100f13:	c3                   	ret    
  100f14:	66 66 66 2e 0f 1f 84 	data16 data16 nopw %cs:0x0(%eax,%eax,1)
  100f1b:	00 00 00 00 00 

00100f20 <parse>:
parse(char *buf, char **argv) {
  100f20:	55                   	push   %ebp
  100f21:	89 e5                	mov    %esp,%ebp
  100f23:	83 ec 28             	sub    $0x28,%esp
  100f26:	8b 45 0c             	mov    0xc(%ebp),%eax
  100f29:	8b 4d 08             	mov    0x8(%ebp),%ecx
  100f2c:	89 4d fc             	mov    %ecx,-0x4(%ebp)
  100f2f:	89 45 f8             	mov    %eax,-0x8(%ebp)
    int argc = 0;
  100f32:	c7 45 f4 00 00 00 00 	movl   $0x0,-0xc(%ebp)
        while (*buf != '\0' && strchr(WHITESPACE, *buf) != NULL) {
  100f39:	e9 00 00 00 00       	jmp    100f3e <parse+0x1e>
  100f3e:	31 c0                	xor    %eax,%eax
  100f40:	88 c1                	mov    %al,%cl
  100f42:	8b 45 fc             	mov    -0x4(%ebp),%eax
  100f45:	0f be 00             	movsbl (%eax),%eax
  100f48:	83 f8 00             	cmp    $0x0,%eax
  100f4b:	88 4d f3             	mov    %cl,-0xd(%ebp)
  100f4e:	0f 84 21 00 00 00    	je     100f75 <parse+0x55>
  100f54:	8d 05 81 f2 10 00    	lea    0x10f281,%eax
  100f5a:	8b 4d fc             	mov    -0x4(%ebp),%ecx
  100f5d:	89 04 24             	mov    %eax,(%esp)
  100f60:	0f be 01             	movsbl (%ecx),%eax
  100f63:	89 44 24 04          	mov    %eax,0x4(%esp)
  100f67:	e8 74 d1 00 00       	call   10e0e0 <strchr>
  100f6c:	83 f8 00             	cmp    $0x0,%eax
  100f6f:	0f 95 c2             	setne  %dl
  100f72:	88 55 f3             	mov    %dl,-0xd(%ebp)
  100f75:	8a 45 f3             	mov    -0xd(%ebp),%al
  100f78:	a8 01                	test   $0x1,%al
  100f7a:	0f 85 05 00 00 00    	jne    100f85 <parse+0x65>
  100f80:	e9 13 00 00 00       	jmp    100f98 <parse+0x78>
            *buf ++ = '\0';
  100f85:	8b 45 fc             	mov    -0x4(%ebp),%eax
  100f88:	89 c1                	mov    %eax,%ecx
  100f8a:	83 c1 01             	add    $0x1,%ecx
  100f8d:	89 4d fc             	mov    %ecx,-0x4(%ebp)
  100f90:	c6 00 00             	movb   $0x0,(%eax)
        while (*buf != '\0' && strchr(WHITESPACE, *buf) != NULL) {
  100f93:	e9 a6 ff ff ff       	jmp    100f3e <parse+0x1e>
        if (*buf == '\0') {
  100f98:	8b 45 fc             	mov    -0x4(%ebp),%eax
  100f9b:	0f be 00             	movsbl (%eax),%eax
  100f9e:	83 f8 00             	cmp    $0x0,%eax
  100fa1:	0f 85 05 00 00 00    	jne    100fac <parse+0x8c>
            break;
  100fa7:	e9 99 00 00 00       	jmp    101045 <parse+0x125>
        if (argc == MAXARGS - 1) {
  100fac:	83 7d f4 0f          	cmpl   $0xf,-0xc(%ebp)
  100fb0:	0f 85 21 00 00 00    	jne    100fd7 <parse+0xb7>
  100fb6:	8d 05 86 f2 10 00    	lea    0x10f286,%eax
  100fbc:	b9 10 00 00 00       	mov    $0x10,%ecx
            cprintf("Too many arguments (max %d).\n", MAXARGS);
  100fc1:	89 04 24             	mov    %eax,(%esp)
  100fc4:	c7 44 24 04 10 00 00 	movl   $0x10,0x4(%esp)
  100fcb:	00 
  100fcc:	89 4d ec             	mov    %ecx,-0x14(%ebp)
  100fcf:	e8 6c f2 ff ff       	call   100240 <cprintf>
  100fd4:	89 45 e8             	mov    %eax,-0x18(%ebp)
        argv[argc ++] = buf;
  100fd7:	8b 45 fc             	mov    -0x4(%ebp),%eax
  100fda:	8b 4d f4             	mov    -0xc(%ebp),%ecx
  100fdd:	89 ca                	mov    %ecx,%edx
  100fdf:	83 c2 01             	add    $0x1,%edx
  100fe2:	89 55 f4             	mov    %edx,-0xc(%ebp)
  100fe5:	8b 55 f8             	mov    -0x8(%ebp),%edx
  100fe8:	89 04 8a             	mov    %eax,(%edx,%ecx,4)
  100feb:	31 c0                	xor    %eax,%eax
  100fed:	88 c1                	mov    %al,%cl
        while (*buf != '\0' && strchr(WHITESPACE, *buf) == NULL) {
  100fef:	8b 45 fc             	mov    -0x4(%ebp),%eax
  100ff2:	0f be 00             	movsbl (%eax),%eax
  100ff5:	83 f8 00             	cmp    $0x0,%eax
  100ff8:	88 4d e7             	mov    %cl,-0x19(%ebp)
  100ffb:	0f 84 21 00 00 00    	je     101022 <parse+0x102>
  101001:	8d 05 81 f2 10 00    	lea    0x10f281,%eax
  101007:	8b 4d fc             	mov    -0x4(%ebp),%ecx
  10100a:	89 04 24             	mov    %eax,(%esp)
  10100d:	0f be 01             	movsbl (%ecx),%eax
  101010:	89 44 24 04          	mov    %eax,0x4(%esp)
  101014:	e8 c7 d0 00 00       	call   10e0e0 <strchr>
  101019:	83 f8 00             	cmp    $0x0,%eax
  10101c:	0f 94 c2             	sete   %dl
  10101f:	88 55 e7             	mov    %dl,-0x19(%ebp)
  101022:	8a 45 e7             	mov    -0x19(%ebp),%al
  101025:	a8 01                	test   $0x1,%al
  101027:	0f 85 05 00 00 00    	jne    101032 <parse+0x112>
  10102d:	e9 0e 00 00 00       	jmp    101040 <parse+0x120>
            buf ++;
  101032:	8b 45 fc             	mov    -0x4(%ebp),%eax
  101035:	83 c0 01             	add    $0x1,%eax
  101038:	89 45 fc             	mov    %eax,-0x4(%ebp)
        while (*buf != '\0' && strchr(WHITESPACE, *buf) == NULL) {
  10103b:	e9 ab ff ff ff       	jmp    100feb <parse+0xcb>
    while (1) {
  101040:	e9 f4 fe ff ff       	jmp    100f39 <parse+0x19>
    return argc;
  101045:	8b 45 f4             	mov    -0xc(%ebp),%eax
  101048:	83 c4 28             	add    $0x28,%esp
  10104b:	5d                   	pop    %ebp
  10104c:	c3                   	ret    
  10104d:	66 90                	xchg   %ax,%ax
  10104f:	90                   	nop

00101050 <clock_init>:
/* *
 * clock_init - initialize 8253 clock to interrupt 100 times per second,
 * and then enable IRQ_TIMER.
 * */
void
clock_init(void) {
  101050:	55                   	push   %ebp
  101051:	89 e5                	mov    %esp,%ebp
    // set 8253 timer-chip
    outb(TIMER_MODE, TIMER_SEL0 | TIMER_RATEGEN | TIMER_16BIT);
  101053:	83 ec 18             	sub    $0x18,%esp
  101056:	66 c7 45 f6 43 00    	movw   $0x43,-0xa(%ebp)
  10105c:	c6 45 f5 34          	movb   $0x34,-0xb(%ebp)
        : "memory", "cc");
}

static inline void
outb(uint16_t port, uint8_t data) {
    asm volatile ("outb %0, %1" :: "a" (data), "d" (port) : "memory");
  101060:	8a 45 f5             	mov    -0xb(%ebp),%al
  101063:	66 8b 55 f6          	mov    -0xa(%ebp),%dx
  101067:	ee                   	out    %al,(%dx)
    outb(IO_TIMER1, TIMER_DIV(100) % 256);
  101068:	66 c7 45 fa 40 00    	movw   $0x40,-0x6(%ebp)
  10106e:	c6 45 f9 9c          	movb   $0x9c,-0x7(%ebp)
  101072:	8a 45 f9             	mov    -0x7(%ebp),%al
  101075:	66 8b 55 fa          	mov    -0x6(%ebp),%dx
  101079:	ee                   	out    %al,(%dx)
    outb(IO_TIMER1, TIMER_DIV(100) / 256);
  10107a:	66 c7 45 fe 40 00    	movw   $0x40,-0x2(%ebp)
  101080:	c6 45 fd 2e          	movb   $0x2e,-0x3(%ebp)
  101084:	8a 45 fd             	mov    -0x3(%ebp),%al
  101087:	66 8b 55 fe          	mov    -0x2(%ebp),%dx
  10108b:	ee                   	out    %al,(%dx)
  10108c:	8d 0d 21 f3 10 00    	lea    0x10f321,%ecx

    // initialize time counter 'ticks' to zero
    ticks = 0;
  101092:	c7 05 20 49 11 00 00 	movl   $0x0,0x114920
  101099:	00 00 00 

    cprintf("++ setup timer interrupts\n");
  10109c:	89 0c 24             	mov    %ecx,(%esp)
  10109f:	e8 9c f1 ff ff       	call   100240 <cprintf>
  1010a4:	31 c9                	xor    %ecx,%ecx
    pic_enable(IRQ_TIMER);
  1010a6:	c7 04 24 00 00 00 00 	movl   $0x0,(%esp)
  1010ad:	89 45 f0             	mov    %eax,-0x10(%ebp)
  1010b0:	89 4d ec             	mov    %ecx,-0x14(%ebp)
  1010b3:	e8 68 0b 00 00       	call   101c20 <pic_enable>
}
  1010b8:	83 c4 18             	add    $0x18,%esp
  1010bb:	5d                   	pop    %ebp
  1010bc:	c3                   	ret    
  1010bd:	66 90                	xchg   %ax,%ax
  1010bf:	90                   	nop

001010c0 <serial_intr>:
    return c;
}

/* serial_intr - try to feed input characters from serial port */
void
serial_intr(void) {
  1010c0:	55                   	push   %ebp
  1010c1:	89 e5                	mov    %esp,%ebp
    if (serial_exists) {
  1010c3:	83 ec 08             	sub    $0x8,%esp
  1010c6:	83 3d 08 3e 11 00 00 	cmpl   $0x0,0x113e08
  1010cd:	0f 84 0e 00 00 00    	je     1010e1 <serial_intr+0x21>
  1010d3:	8d 05 60 11 10 00    	lea    0x101160,%eax
        cons_intr(serial_proc_data);
  1010d9:	89 04 24             	mov    %eax,(%esp)
  1010dc:	e8 0f 00 00 00       	call   1010f0 <cons_intr>
    }
}
  1010e1:	83 c4 08             	add    $0x8,%esp
  1010e4:	5d                   	pop    %ebp
  1010e5:	c3                   	ret    
  1010e6:	66 2e 0f 1f 84 00 00 	nopw   %cs:0x0(%eax,%eax,1)
  1010ed:	00 00 00 

001010f0 <cons_intr>:
cons_intr(int (*proc)(void)) {
  1010f0:	55                   	push   %ebp
  1010f1:	89 e5                	mov    %esp,%ebp
  1010f3:	83 ec 08             	sub    $0x8,%esp
  1010f6:	8b 45 08             	mov    0x8(%ebp),%eax
  1010f9:	89 45 fc             	mov    %eax,-0x4(%ebp)
    while ((c = (*proc)()) != -1) {
  1010fc:	ff 55 fc             	call   *-0x4(%ebp)
  1010ff:	89 45 f8             	mov    %eax,-0x8(%ebp)
  101102:	83 f8 ff             	cmp    $0xffffffff,%eax
  101105:	0f 84 4a 00 00 00    	je     101155 <cons_intr+0x65>
        if (c != 0) {
  10110b:	83 7d f8 00          	cmpl   $0x0,-0x8(%ebp)
  10110f:	0f 84 3b 00 00 00    	je     101150 <cons_intr+0x60>
            cons.buf[cons.wpos ++] = c;
  101115:	8b 45 f8             	mov    -0x8(%ebp),%eax
  101118:	88 c1                	mov    %al,%cl
  10111a:	a1 10 40 11 00       	mov    0x114010,%eax
  10111f:	89 c2                	mov    %eax,%edx
  101121:	83 c2 01             	add    $0x1,%edx
  101124:	89 15 10 40 11 00    	mov    %edx,0x114010
  10112a:	88 0c 05 0c 3e 11 00 	mov    %cl,0x113e0c(,%eax,1)
            if (cons.wpos == CONSBUFSIZE) {
  101131:	81 3d 10 40 11 00 00 	cmpl   $0x200,0x114010
  101138:	02 00 00 
  10113b:	0f 85 0a 00 00 00    	jne    10114b <cons_intr+0x5b>
                cons.wpos = 0;
  101141:	c7 05 10 40 11 00 00 	movl   $0x0,0x114010
  101148:	00 00 00 
        }
  10114b:	e9 00 00 00 00       	jmp    101150 <cons_intr+0x60>
    while ((c = (*proc)()) != -1) {
  101150:	e9 a7 ff ff ff       	jmp    1010fc <cons_intr+0xc>
}
  101155:	83 c4 08             	add    $0x8,%esp
  101158:	5d                   	pop    %ebp
  101159:	c3                   	ret    
  10115a:	66 0f 1f 44 00 00    	nopw   0x0(%eax,%eax,1)

00101160 <serial_proc_data>:
serial_proc_data(void) {
  101160:	55                   	push   %ebp
  101161:	89 e5                	mov    %esp,%ebp
    if (!(inb(COM1 + COM_LSR) & COM_LSR_DATA)) {
  101163:	83 ec 10             	sub    $0x10,%esp
  101166:	66 c7 45 fa fd 03    	movw   $0x3fd,-0x6(%ebp)
    asm volatile ("inb %1, %0" : "=a" (data) : "d" (port) : "memory");
  10116c:	66 8b 55 fa          	mov    -0x6(%ebp),%dx
  101170:	ec                   	in     (%dx),%al
  101171:	88 45 f9             	mov    %al,-0x7(%ebp)
  101174:	0f b6 4d f9          	movzbl -0x7(%ebp),%ecx
  101178:	83 e1 01             	and    $0x1,%ecx
  10117b:	83 f9 00             	cmp    $0x0,%ecx
  10117e:	0f 85 0c 00 00 00    	jne    101190 <serial_proc_data+0x30>
        return -1;
  101184:	c7 45 f4 ff ff ff ff 	movl   $0xffffffff,-0xc(%ebp)
  10118b:	e9 2c 00 00 00       	jmp    1011bc <serial_proc_data+0x5c>
    int c = inb(COM1 + COM_RX);
  101190:	66 c7 45 fe f8 03    	movw   $0x3f8,-0x2(%ebp)
  101196:	66 8b 55 fe          	mov    -0x2(%ebp),%dx
  10119a:	ec                   	in     (%dx),%al
  10119b:	88 45 fd             	mov    %al,-0x3(%ebp)
  10119e:	0f b6 4d fd          	movzbl -0x3(%ebp),%ecx
  1011a2:	89 4d f0             	mov    %ecx,-0x10(%ebp)
    if (c == 127) {
  1011a5:	83 7d f0 7f          	cmpl   $0x7f,-0x10(%ebp)
  1011a9:	0f 85 07 00 00 00    	jne    1011b6 <serial_proc_data+0x56>
        c = '\b';
  1011af:	c7 45 f0 08 00 00 00 	movl   $0x8,-0x10(%ebp)
    return c;
  1011b6:	8b 45 f0             	mov    -0x10(%ebp),%eax
  1011b9:	89 45 f4             	mov    %eax,-0xc(%ebp)
}
  1011bc:	8b 45 f4             	mov    -0xc(%ebp),%eax
  1011bf:	83 c4 10             	add    $0x10,%esp
  1011c2:	5d                   	pop    %ebp
  1011c3:	c3                   	ret    
  1011c4:	66 66 66 2e 0f 1f 84 	data16 data16 nopw %cs:0x0(%eax,%eax,1)
  1011cb:	00 00 00 00 00 

001011d0 <cons_init>:
    pic_enable(IRQ_KBD);
}

/* cons_init - initializes the console devices */
void
cons_init(void) {
  1011d0:	55                   	push   %ebp
  1011d1:	89 e5                	mov    %esp,%ebp
    cga_init();
  1011d3:	83 ec 08             	sub    $0x8,%esp
  1011d6:	e8 35 00 00 00       	call   101210 <cga_init>
    serial_init();
  1011db:	e8 20 01 00 00       	call   101300 <serial_init>
    kbd_init();
  1011e0:	e8 0b 02 00 00       	call   1013f0 <kbd_init>
    if (!serial_exists) {
  1011e5:	83 3d 08 3e 11 00 00 	cmpl   $0x0,0x113e08
  1011ec:	0f 85 11 00 00 00    	jne    101203 <cons_init+0x33>
  1011f2:	8d 05 3c f3 10 00    	lea    0x10f33c,%eax
        cprintf("serial port does not exist!!\n");
  1011f8:	89 04 24             	mov    %eax,(%esp)
  1011fb:	e8 40 f0 ff ff       	call   100240 <cprintf>
  101200:	89 45 fc             	mov    %eax,-0x4(%ebp)
    }
}
  101203:	83 c4 08             	add    $0x8,%esp
  101206:	5d                   	pop    %ebp
  101207:	c3                   	ret    
  101208:	0f 1f 84 00 00 00 00 	nopl   0x0(%eax,%eax,1)
  10120f:	00 

00101210 <cga_init>:
cga_init(void) {
  101210:	55                   	push   %ebp
  101211:	89 e5                	mov    %esp,%ebp
  101213:	83 ec 1c             	sub    $0x1c,%esp
  101216:	b8 00 80 0b c0       	mov    $0xc00b8000,%eax
    volatile uint16_t *cp = (uint16_t *)(CGA_BUF + KERNBASE);
  10121b:	89 45 ec             	mov    %eax,-0x14(%ebp)
    uint16_t was = *cp;
  10121e:	8b 45 ec             	mov    -0x14(%ebp),%eax
  101221:	66 8b 08             	mov    (%eax),%cx
  101224:	66 89 4d ea          	mov    %cx,-0x16(%ebp)
    *cp = (uint16_t) 0xA55A;
  101228:	8b 45 ec             	mov    -0x14(%ebp),%eax
  10122b:	66 c7 00 5a a5       	movw   $0xa55a,(%eax)
    if (*cp != 0xA55A) {
  101230:	8b 45 ec             	mov    -0x14(%ebp),%eax
  101233:	66 8b 08             	mov    (%eax),%cx
  101236:	0f b7 c1             	movzwl %cx,%eax
  101239:	3d 5a a5 00 00       	cmp    $0xa55a,%eax
  10123e:	0f 84 16 00 00 00    	je     10125a <cga_init+0x4a>
  101244:	b8 00 00 0b c0       	mov    $0xc00b0000,%eax
        cp = (uint16_t*)(MONO_BUF + KERNBASE);
  101249:	89 45 ec             	mov    %eax,-0x14(%ebp)
        addr_6845 = MONO_BASE;
  10124c:	66 c7 05 14 40 11 00 	movw   $0x3b4,0x114014
  101253:	b4 03 
    } else {
  101255:	e9 13 00 00 00       	jmp    10126d <cga_init+0x5d>
        *cp = was;
  10125a:	66 8b 45 ea          	mov    -0x16(%ebp),%ax
  10125e:	8b 4d ec             	mov    -0x14(%ebp),%ecx
  101261:	66 89 01             	mov    %ax,(%ecx)
        addr_6845 = CGA_BASE;
  101264:	66 c7 05 14 40 11 00 	movw   $0x3d4,0x114014
  10126b:	d4 03 
    outb(addr_6845, 14);
  10126d:	66 a1 14 40 11 00    	mov    0x114014,%ax
  101273:	66 89 45 f2          	mov    %ax,-0xe(%ebp)
  101277:	c6 45 f1 0e          	movb   $0xe,-0xf(%ebp)
    asm volatile ("outb %0, %1" :: "a" (data), "d" (port) : "memory");
  10127b:	8a 45 f1             	mov    -0xf(%ebp),%al
  10127e:	66 8b 55 f2          	mov    -0xe(%ebp),%dx
  101282:	ee                   	out    %al,(%dx)
    pos = inb(addr_6845 + 1) << 8;
  101283:	0f b7 0d 14 40 11 00 	movzwl 0x114014,%ecx
  10128a:	83 c1 01             	add    $0x1,%ecx
  10128d:	66 89 ca             	mov    %cx,%dx
  101290:	66 89 55 f6          	mov    %dx,-0xa(%ebp)
    asm volatile ("inb %1, %0" : "=a" (data) : "d" (port) : "memory");
  101294:	66 8b 55 f6          	mov    -0xa(%ebp),%dx
  101298:	ec                   	in     (%dx),%al
  101299:	88 45 f5             	mov    %al,-0xb(%ebp)
  10129c:	0f b6 4d f5          	movzbl -0xb(%ebp),%ecx
  1012a0:	c1 e1 08             	shl    $0x8,%ecx
  1012a3:	89 4d e4             	mov    %ecx,-0x1c(%ebp)
    outb(addr_6845, 15);
  1012a6:	66 8b 15 14 40 11 00 	mov    0x114014,%dx
  1012ad:	66 89 55 fa          	mov    %dx,-0x6(%ebp)
  1012b1:	c6 45 f9 0f          	movb   $0xf,-0x7(%ebp)
    asm volatile ("outb %0, %1" :: "a" (data), "d" (port) : "memory");
  1012b5:	8a 45 f9             	mov    -0x7(%ebp),%al
  1012b8:	66 8b 55 fa          	mov    -0x6(%ebp),%dx
  1012bc:	ee                   	out    %al,(%dx)
    pos |= inb(addr_6845 + 1);
  1012bd:	0f b7 0d 14 40 11 00 	movzwl 0x114014,%ecx
  1012c4:	83 c1 01             	add    $0x1,%ecx
  1012c7:	66 89 ca             	mov    %cx,%dx
  1012ca:	66 89 55 fe          	mov    %dx,-0x2(%ebp)
    asm volatile ("inb %1, %0" : "=a" (data) : "d" (port) : "memory");
  1012ce:	66 8b 55 fe          	mov    -0x2(%ebp),%dx
  1012d2:	ec                   	in     (%dx),%al
  1012d3:	88 45 fd             	mov    %al,-0x3(%ebp)
  1012d6:	0f b6 4d fd          	movzbl -0x3(%ebp),%ecx
  1012da:	0b 4d e4             	or     -0x1c(%ebp),%ecx
  1012dd:	89 4d e4             	mov    %ecx,-0x1c(%ebp)
    crt_buf = (uint16_t*) cp;
  1012e0:	8b 4d ec             	mov    -0x14(%ebp),%ecx
  1012e3:	89 0d 18 40 11 00    	mov    %ecx,0x114018
    crt_pos = pos;
  1012e9:	8b 4d e4             	mov    -0x1c(%ebp),%ecx
  1012ec:	66 89 ca             	mov    %cx,%dx
  1012ef:	66 89 15 1c 40 11 00 	mov    %dx,0x11401c
}
  1012f6:	83 c4 1c             	add    $0x1c,%esp
  1012f9:	5d                   	pop    %ebp
  1012fa:	c3                   	ret    
  1012fb:	0f 1f 44 00 00       	nopl   0x0(%eax,%eax,1)

00101300 <serial_init>:
serial_init(void) {
  101300:	55                   	push   %ebp
  101301:	89 e5                	mov    %esp,%ebp
    outb(COM1 + COM_FCR, 0);
  101303:	83 ec 38             	sub    $0x38,%esp
  101306:	66 c7 45 da fa 03    	movw   $0x3fa,-0x26(%ebp)
  10130c:	c6 45 d9 00          	movb   $0x0,-0x27(%ebp)
    asm volatile ("outb %0, %1" :: "a" (data), "d" (port) : "memory");
  101310:	8a 45 d9             	mov    -0x27(%ebp),%al
  101313:	66 8b 55 da          	mov    -0x26(%ebp),%dx
  101317:	ee                   	out    %al,(%dx)
    outb(COM1 + COM_LCR, COM_LCR_DLAB);
  101318:	66 c7 45 de fb 03    	movw   $0x3fb,-0x22(%ebp)
  10131e:	c6 45 dd 80          	movb   $0x80,-0x23(%ebp)
  101322:	8a 45 dd             	mov    -0x23(%ebp),%al
  101325:	66 8b 55 de          	mov    -0x22(%ebp),%dx
  101329:	ee                   	out    %al,(%dx)
    outb(COM1 + COM_DLL, (uint8_t) (115200 / 9600));
  10132a:	66 c7 45 e2 f8 03    	movw   $0x3f8,-0x1e(%ebp)
  101330:	c6 45 e1 0c          	movb   $0xc,-0x1f(%ebp)
  101334:	8a 45 e1             	mov    -0x1f(%ebp),%al
  101337:	66 8b 55 e2          	mov    -0x1e(%ebp),%dx
  10133b:	ee                   	out    %al,(%dx)
    outb(COM1 + COM_DLM, 0);
  10133c:	66 c7 45 e6 f9 03    	movw   $0x3f9,-0x1a(%ebp)
  101342:	c6 45 e5 00          	movb   $0x0,-0x1b(%ebp)
  101346:	8a 45 e5             	mov    -0x1b(%ebp),%al
  101349:	66 8b 55 e6          	mov    -0x1a(%ebp),%dx
  10134d:	ee                   	out    %al,(%dx)
    outb(COM1 + COM_LCR, COM_LCR_WLEN8 & ~COM_LCR_DLAB);
  10134e:	66 c7 45 ea fb 03    	movw   $0x3fb,-0x16(%ebp)
  101354:	c6 45 e9 03          	movb   $0x3,-0x17(%ebp)
  101358:	8a 45 e9             	mov    -0x17(%ebp),%al
  10135b:	66 8b 55 ea          	mov    -0x16(%ebp),%dx
  10135f:	ee                   	out    %al,(%dx)
    outb(COM1 + COM_MCR, 0);
  101360:	66 c7 45 ee fc 03    	movw   $0x3fc,-0x12(%ebp)
  101366:	c6 45 ed 00          	movb   $0x0,-0x13(%ebp)
  10136a:	8a 45 ed             	mov    -0x13(%ebp),%al
  10136d:	66 8b 55 ee          	mov    -0x12(%ebp),%dx
  101371:	ee                   	out    %al,(%dx)
    outb(COM1 + COM_IER, COM_IER_RDI);
  101372:	66 c7 45 f2 f9 03    	movw   $0x3f9,-0xe(%ebp)
  101378:	c6 45 f1 01          	movb   $0x1,-0xf(%ebp)
  10137c:	8a 45 f1             	mov    -0xf(%ebp),%al
  10137f:	66 8b 55 f2          	mov    -0xe(%ebp),%dx
  101383:	ee                   	out    %al,(%dx)
    serial_exists = (inb(COM1 + COM_LSR) != 0xFF);
  101384:	66 c7 45 f6 fd 03    	movw   $0x3fd,-0xa(%ebp)
    asm volatile ("inb %1, %0" : "=a" (data) : "d" (port) : "memory");
  10138a:	66 8b 55 f6          	mov    -0xa(%ebp),%dx
  10138e:	ec                   	in     (%dx),%al
  10138f:	88 45 f5             	mov    %al,-0xb(%ebp)
  101392:	0f b6 4d f5          	movzbl -0xb(%ebp),%ecx
  101396:	81 f9 ff 00 00 00    	cmp    $0xff,%ecx
  10139c:	0f 95 c0             	setne  %al
  10139f:	24 01                	and    $0x1,%al
  1013a1:	0f b6 c8             	movzbl %al,%ecx
  1013a4:	89 0d 08 3e 11 00    	mov    %ecx,0x113e08
    (void) inb(COM1+COM_IIR);
  1013aa:	66 c7 45 fa fa 03    	movw   $0x3fa,-0x6(%ebp)
  1013b0:	66 8b 55 fa          	mov    -0x6(%ebp),%dx
  1013b4:	ec                   	in     (%dx),%al
  1013b5:	88 45 f9             	mov    %al,-0x7(%ebp)
    (void) inb(COM1+COM_RX);
  1013b8:	66 c7 45 fe f8 03    	movw   $0x3f8,-0x2(%ebp)
  1013be:	66 8b 55 fe          	mov    -0x2(%ebp),%dx
  1013c2:	ec                   	in     (%dx),%al
  1013c3:	88 45 fd             	mov    %al,-0x3(%ebp)
    if (serial_exists) {
  1013c6:	83 3d 08 3e 11 00 00 	cmpl   $0x0,0x113e08
  1013cd:	0f 84 14 00 00 00    	je     1013e7 <serial_init+0xe7>
  1013d3:	b8 04 00 00 00       	mov    $0x4,%eax
        pic_enable(IRQ_COM1);
  1013d8:	c7 04 24 04 00 00 00 	movl   $0x4,(%esp)
  1013df:	89 45 d4             	mov    %eax,-0x2c(%ebp)
  1013e2:	e8 39 08 00 00       	call   101c20 <pic_enable>
}
  1013e7:	83 c4 38             	add    $0x38,%esp
  1013ea:	5d                   	pop    %ebp
  1013eb:	c3                   	ret    
  1013ec:	0f 1f 40 00          	nopl   0x0(%eax)

001013f0 <kbd_init>:
kbd_init(void) {
  1013f0:	55                   	push   %ebp
  1013f1:	89 e5                	mov    %esp,%ebp
    kbd_intr();
  1013f3:	83 ec 08             	sub    $0x8,%esp
  1013f6:	e8 65 04 00 00       	call   101860 <kbd_intr>
  1013fb:	b8 01 00 00 00       	mov    $0x1,%eax
    pic_enable(IRQ_KBD);
  101400:	c7 04 24 01 00 00 00 	movl   $0x1,(%esp)
  101407:	89 45 fc             	mov    %eax,-0x4(%ebp)
  10140a:	e8 11 08 00 00       	call   101c20 <pic_enable>
}
  10140f:	83 c4 08             	add    $0x8,%esp
  101412:	5d                   	pop    %ebp
  101413:	c3                   	ret    
  101414:	66 66 66 2e 0f 1f 84 	data16 data16 nopw %cs:0x0(%eax,%eax,1)
  10141b:	00 00 00 00 00 

00101420 <cons_putc>:

/* cons_putc - print a single character @c to console devices */
void
cons_putc(int c) {
  101420:	55                   	push   %ebp
  101421:	89 e5                	mov    %esp,%ebp
  101423:	83 ec 18             	sub    $0x18,%esp
  101426:	8b 45 08             	mov    0x8(%ebp),%eax
  101429:	89 45 fc             	mov    %eax,-0x4(%ebp)
    bool intr_flag;
    local_intr_save(intr_flag);
  10142c:	e8 3f 00 00 00       	call   101470 <__intr_save>
  101431:	89 45 f8             	mov    %eax,-0x8(%ebp)
    {
        lpt_putc(c);
  101434:	8b 45 fc             	mov    -0x4(%ebp),%eax
  101437:	89 04 24             	mov    %eax,(%esp)
  10143a:	e8 71 00 00 00       	call   1014b0 <lpt_putc>
        cga_putc(c);
  10143f:	8b 45 fc             	mov    -0x4(%ebp),%eax
  101442:	89 04 24             	mov    %eax,(%esp)
  101445:	e8 d6 00 00 00       	call   101520 <cga_putc>
        serial_putc(c);
  10144a:	8b 45 fc             	mov    -0x4(%ebp),%eax
  10144d:	89 04 24             	mov    %eax,(%esp)
  101450:	e8 fb 02 00 00       	call   101750 <serial_putc>
    }
    local_intr_restore(intr_flag);
  101455:	8b 45 f8             	mov    -0x8(%ebp),%eax
  101458:	89 04 24             	mov    %eax,(%esp)
  10145b:	e8 60 03 00 00       	call   1017c0 <__intr_restore>
}
  101460:	83 c4 18             	add    $0x18,%esp
  101463:	5d                   	pop    %ebp
  101464:	c3                   	ret    
  101465:	66 66 2e 0f 1f 84 00 	data16 nopw %cs:0x0(%eax,%eax,1)
  10146c:	00 00 00 00 

00101470 <__intr_save>:
#include <x86.h>
#include <intr.h>
#include <mmu.h>

static inline bool
__intr_save(void) {
  101470:	55                   	push   %ebp
  101471:	89 e5                	mov    %esp,%ebp
}

static inline uint32_t
read_eflags(void) {
    uint32_t eflags;
    asm volatile ("pushfl; popl %0" : "=r" (eflags));
  101473:	83 ec 08             	sub    $0x8,%esp
  101476:	9c                   	pushf  
  101477:	58                   	pop    %eax
  101478:	89 45 fc             	mov    %eax,-0x4(%ebp)
    return eflags;
  10147b:	8b 45 fc             	mov    -0x4(%ebp),%eax
    if (read_eflags() & FL_IF) {
  10147e:	25 00 02 00 00       	and    $0x200,%eax
  101483:	83 f8 00             	cmp    $0x0,%eax
  101486:	0f 84 11 00 00 00    	je     10149d <__intr_save+0x2d>
        intr_disable();
  10148c:	e8 8f 09 00 00       	call   101e20 <intr_disable>
        return 1;
  101491:	c7 45 f8 01 00 00 00 	movl   $0x1,-0x8(%ebp)
  101498:	e9 07 00 00 00       	jmp    1014a4 <__intr_save+0x34>
    }
    return 0;
  10149d:	c7 45 f8 00 00 00 00 	movl   $0x0,-0x8(%ebp)
}
  1014a4:	8b 45 f8             	mov    -0x8(%ebp),%eax
  1014a7:	83 c4 08             	add    $0x8,%esp
  1014aa:	5d                   	pop    %ebp
  1014ab:	c3                   	ret    
  1014ac:	0f 1f 40 00          	nopl   0x0(%eax)

001014b0 <lpt_putc>:
lpt_putc(int c) {
  1014b0:	55                   	push   %ebp
  1014b1:	89 e5                	mov    %esp,%ebp
  1014b3:	83 ec 18             	sub    $0x18,%esp
  1014b6:	8b 45 08             	mov    0x8(%ebp),%eax
  1014b9:	89 45 fc             	mov    %eax,-0x4(%ebp)
    if (c != '\b') {
  1014bc:	83 7d fc 08          	cmpl   $0x8,-0x4(%ebp)
  1014c0:	0f 84 10 00 00 00    	je     1014d6 <lpt_putc+0x26>
        lpt_putc_sub(c);
  1014c6:	8b 45 fc             	mov    -0x4(%ebp),%eax
  1014c9:	89 04 24             	mov    %eax,(%esp)
  1014cc:	e8 af 03 00 00       	call   101880 <lpt_putc_sub>
    }
  1014d1:	e9 3c 00 00 00       	jmp    101512 <lpt_putc+0x62>
  1014d6:	b8 08 00 00 00       	mov    $0x8,%eax
        lpt_putc_sub('\b');
  1014db:	c7 04 24 08 00 00 00 	movl   $0x8,(%esp)
  1014e2:	89 45 f8             	mov    %eax,-0x8(%ebp)
  1014e5:	e8 96 03 00 00       	call   101880 <lpt_putc_sub>
  1014ea:	b8 20 00 00 00       	mov    $0x20,%eax
        lpt_putc_sub(' ');
  1014ef:	c7 04 24 20 00 00 00 	movl   $0x20,(%esp)
  1014f6:	89 45 f4             	mov    %eax,-0xc(%ebp)
  1014f9:	e8 82 03 00 00       	call   101880 <lpt_putc_sub>
  1014fe:	b8 08 00 00 00       	mov    $0x8,%eax
        lpt_putc_sub('\b');
  101503:	c7 04 24 08 00 00 00 	movl   $0x8,(%esp)
  10150a:	89 45 f0             	mov    %eax,-0x10(%ebp)
  10150d:	e8 6e 03 00 00       	call   101880 <lpt_putc_sub>
}
  101512:	83 c4 18             	add    $0x18,%esp
  101515:	5d                   	pop    %ebp
  101516:	c3                   	ret    
  101517:	66 0f 1f 84 00 00 00 	nopw   0x0(%eax,%eax,1)
  10151e:	00 00 

00101520 <cga_putc>:
cga_putc(int c) {
  101520:	55                   	push   %ebp
  101521:	89 e5                	mov    %esp,%ebp
  101523:	53                   	push   %ebx
  101524:	57                   	push   %edi
  101525:	56                   	push   %esi
  101526:	83 ec 4c             	sub    $0x4c,%esp
  101529:	8b 45 08             	mov    0x8(%ebp),%eax
  10152c:	89 45 e0             	mov    %eax,-0x20(%ebp)
    if (!(c & ~0xFF)) {
  10152f:	8b 45 e0             	mov    -0x20(%ebp),%eax
  101532:	25 00 ff ff ff       	and    $0xffffff00,%eax
  101537:	83 f8 00             	cmp    $0x0,%eax
  10153a:	0f 85 0b 00 00 00    	jne    10154b <cga_putc+0x2b>
        c |= 0x0700;
  101540:	8b 45 e0             	mov    -0x20(%ebp),%eax
  101543:	0d 00 07 00 00       	or     $0x700,%eax
  101548:	89 45 e0             	mov    %eax,-0x20(%ebp)
    switch (c & 0xff) {
  10154b:	0f b6 45 e0          	movzbl -0x20(%ebp),%eax
  10154f:	89 c1                	mov    %eax,%ecx
  101551:	83 e9 08             	sub    $0x8,%ecx
  101554:	89 45 d8             	mov    %eax,-0x28(%ebp)
  101557:	89 4d d4             	mov    %ecx,-0x2c(%ebp)
  10155a:	0f 84 2d 00 00 00    	je     10158d <cga_putc+0x6d>
  101560:	e9 00 00 00 00       	jmp    101565 <cga_putc+0x45>
  101565:	8b 45 d8             	mov    -0x28(%ebp),%eax
  101568:	83 e8 0a             	sub    $0xa,%eax
  10156b:	89 45 d0             	mov    %eax,-0x30(%ebp)
  10156e:	0f 84 5e 00 00 00    	je     1015d2 <cga_putc+0xb2>
  101574:	e9 00 00 00 00       	jmp    101579 <cga_putc+0x59>
  101579:	8b 45 d8             	mov    -0x28(%ebp),%eax
  10157c:	83 e8 0d             	sub    $0xd,%eax
  10157f:	89 45 cc             	mov    %eax,-0x34(%ebp)
  101582:	0f 84 5e 00 00 00    	je     1015e6 <cga_putc+0xc6>
  101588:	e9 88 00 00 00       	jmp    101615 <cga_putc+0xf5>
        if (crt_pos > 0) {
  10158d:	0f b7 05 1c 40 11 00 	movzwl 0x11401c,%eax
  101594:	83 f8 00             	cmp    $0x0,%eax
  101597:	0f 8e 30 00 00 00    	jle    1015cd <cga_putc+0xad>
            crt_pos --;
  10159d:	66 a1 1c 40 11 00    	mov    0x11401c,%ax
  1015a3:	66 83 c0 ff          	add    $0xffff,%ax
  1015a7:	66 a3 1c 40 11 00    	mov    %ax,0x11401c
            crt_buf[crt_pos] = (c & ~0xff) | ' ';
  1015ad:	8b 4d e0             	mov    -0x20(%ebp),%ecx
  1015b0:	81 e1 00 ff ff ff    	and    $0xffffff00,%ecx
  1015b6:	83 c9 20             	or     $0x20,%ecx
  1015b9:	66 89 c8             	mov    %cx,%ax
  1015bc:	0f b7 0d 1c 40 11 00 	movzwl 0x11401c,%ecx
  1015c3:	8b 15 18 40 11 00    	mov    0x114018,%edx
  1015c9:	66 89 04 4a          	mov    %ax,(%edx,%ecx,2)
        break;
  1015cd:	e9 6b 00 00 00       	jmp    10163d <cga_putc+0x11d>
        crt_pos += CRT_COLS;
  1015d2:	0f b7 05 1c 40 11 00 	movzwl 0x11401c,%eax
  1015d9:	83 c0 50             	add    $0x50,%eax
  1015dc:	66 89 c1             	mov    %ax,%cx
  1015df:	66 89 0d 1c 40 11 00 	mov    %cx,0x11401c
  1015e6:	b8 50 00 00 00       	mov    $0x50,%eax
        crt_pos -= (crt_pos % CRT_COLS);
  1015eb:	0f b7 0d 1c 40 11 00 	movzwl 0x11401c,%ecx
  1015f2:	89 45 c8             	mov    %eax,-0x38(%ebp)
  1015f5:	89 c8                	mov    %ecx,%eax
  1015f7:	99                   	cltd   
  1015f8:	8b 4d c8             	mov    -0x38(%ebp),%ecx
  1015fb:	f7 f9                	idiv   %ecx
  1015fd:	0f b7 35 1c 40 11 00 	movzwl 0x11401c,%esi
  101604:	29 d6                	sub    %edx,%esi
  101606:	66 89 f7             	mov    %si,%di
  101609:	66 89 3d 1c 40 11 00 	mov    %di,0x11401c
        break;
  101610:	e9 28 00 00 00       	jmp    10163d <cga_putc+0x11d>
        crt_buf[crt_pos ++] = c;     // write the character
  101615:	8b 45 e0             	mov    -0x20(%ebp),%eax
  101618:	66 89 c1             	mov    %ax,%cx
  10161b:	66 8b 15 1c 40 11 00 	mov    0x11401c,%dx
  101622:	66 89 d6             	mov    %dx,%si
  101625:	66 83 c6 01          	add    $0x1,%si
  101629:	66 89 35 1c 40 11 00 	mov    %si,0x11401c
  101630:	0f b7 c2             	movzwl %dx,%eax
  101633:	8b 3d 18 40 11 00    	mov    0x114018,%edi
  101639:	66 89 0c 47          	mov    %cx,(%edi,%eax,2)
    if (crt_pos >= CRT_SIZE) {
  10163d:	0f b7 05 1c 40 11 00 	movzwl 0x11401c,%eax
  101644:	3d d0 07 00 00       	cmp    $0x7d0,%eax
  101649:	0f 8c 76 00 00 00    	jl     1016c5 <cga_putc+0x1a5>
  10164f:	b8 00 0f 00 00       	mov    $0xf00,%eax
        memmove(crt_buf, crt_buf + CRT_COLS, (CRT_SIZE - CRT_COLS) * sizeof(uint16_t));
  101654:	8b 0d 18 40 11 00    	mov    0x114018,%ecx
  10165a:	8b 15 18 40 11 00    	mov    0x114018,%edx
  101660:	81 c2 a0 00 00 00    	add    $0xa0,%edx
  101666:	89 0c 24             	mov    %ecx,(%esp)
  101669:	89 54 24 04          	mov    %edx,0x4(%esp)
  10166d:	c7 44 24 08 00 0f 00 	movl   $0xf00,0x8(%esp)
  101674:	00 
  101675:	89 45 c4             	mov    %eax,-0x3c(%ebp)
  101678:	e8 b3 cd 00 00       	call   10e430 <memmove>
        for (i = CRT_SIZE - CRT_COLS; i < CRT_SIZE; i ++) {
  10167d:	c7 45 dc 80 07 00 00 	movl   $0x780,-0x24(%ebp)
  101684:	89 45 c0             	mov    %eax,-0x40(%ebp)
  101687:	81 7d dc d0 07 00 00 	cmpl   $0x7d0,-0x24(%ebp)
  10168e:	0f 8d 1d 00 00 00    	jge    1016b1 <cga_putc+0x191>
            crt_buf[i] = 0x0700 | ' ';
  101694:	8b 45 dc             	mov    -0x24(%ebp),%eax
  101697:	8b 0d 18 40 11 00    	mov    0x114018,%ecx
  10169d:	66 c7 04 41 20 07    	movw   $0x720,(%ecx,%eax,2)
        for (i = CRT_SIZE - CRT_COLS; i < CRT_SIZE; i ++) {
  1016a3:	8b 45 dc             	mov    -0x24(%ebp),%eax
  1016a6:	83 c0 01             	add    $0x1,%eax
  1016a9:	89 45 dc             	mov    %eax,-0x24(%ebp)
  1016ac:	e9 d6 ff ff ff       	jmp    101687 <cga_putc+0x167>
        crt_pos -= CRT_COLS;
  1016b1:	0f b7 05 1c 40 11 00 	movzwl 0x11401c,%eax
  1016b8:	83 e8 50             	sub    $0x50,%eax
  1016bb:	66 89 c1             	mov    %ax,%cx
  1016be:	66 89 0d 1c 40 11 00 	mov    %cx,0x11401c
    outb(addr_6845, 14);
  1016c5:	66 a1 14 40 11 00    	mov    0x114014,%ax
  1016cb:	66 89 45 e6          	mov    %ax,-0x1a(%ebp)
  1016cf:	c6 45 e5 0e          	movb   $0xe,-0x1b(%ebp)
    asm volatile ("outb %0, %1" :: "a" (data), "d" (port) : "memory");
  1016d3:	8a 45 e5             	mov    -0x1b(%ebp),%al
  1016d6:	66 8b 55 e6          	mov    -0x1a(%ebp),%dx
  1016da:	ee                   	out    %al,(%dx)
    outb(addr_6845 + 1, crt_pos >> 8);
  1016db:	0f b7 0d 14 40 11 00 	movzwl 0x114014,%ecx
  1016e2:	83 c1 01             	add    $0x1,%ecx
  1016e5:	66 89 ca             	mov    %cx,%dx
  1016e8:	0f b7 0d 1c 40 11 00 	movzwl 0x11401c,%ecx
  1016ef:	c1 f9 08             	sar    $0x8,%ecx
  1016f2:	88 c8                	mov    %cl,%al
  1016f4:	66 89 55 ea          	mov    %dx,-0x16(%ebp)
  1016f8:	88 45 e9             	mov    %al,-0x17(%ebp)
  1016fb:	8a 45 e9             	mov    -0x17(%ebp),%al
  1016fe:	66 8b 55 ea          	mov    -0x16(%ebp),%dx
  101702:	ee                   	out    %al,(%dx)
    outb(addr_6845, 15);
  101703:	66 8b 15 14 40 11 00 	mov    0x114014,%dx
  10170a:	66 89 55 ee          	mov    %dx,-0x12(%ebp)
  10170e:	c6 45 ed 0f          	movb   $0xf,-0x13(%ebp)
  101712:	8a 45 ed             	mov    -0x13(%ebp),%al
  101715:	66 8b 55 ee          	mov    -0x12(%ebp),%dx
  101719:	ee                   	out    %al,(%dx)
    outb(addr_6845 + 1, crt_pos);
  10171a:	0f b7 0d 14 40 11 00 	movzwl 0x114014,%ecx
  101721:	83 c1 01             	add    $0x1,%ecx
  101724:	66 89 ca             	mov    %cx,%dx
  101727:	66 8b 35 1c 40 11 00 	mov    0x11401c,%si
  10172e:	66 89 f3             	mov    %si,%bx
  101731:	88 d8                	mov    %bl,%al
  101733:	66 89 55 f2          	mov    %dx,-0xe(%ebp)
  101737:	88 45 f1             	mov    %al,-0xf(%ebp)
  10173a:	8a 45 f1             	mov    -0xf(%ebp),%al
  10173d:	66 8b 55 f2          	mov    -0xe(%ebp),%dx
  101741:	ee                   	out    %al,(%dx)
}
  101742:	83 c4 4c             	add    $0x4c,%esp
  101745:	5e                   	pop    %esi
  101746:	5f                   	pop    %edi
  101747:	5b                   	pop    %ebx
  101748:	5d                   	pop    %ebp
  101749:	c3                   	ret    
  10174a:	66 0f 1f 44 00 00    	nopw   0x0(%eax,%eax,1)

00101750 <serial_putc>:
serial_putc(int c) {
  101750:	55                   	push   %ebp
  101751:	89 e5                	mov    %esp,%ebp
  101753:	83 ec 18             	sub    $0x18,%esp
  101756:	8b 45 08             	mov    0x8(%ebp),%eax
  101759:	89 45 fc             	mov    %eax,-0x4(%ebp)
    if (c != '\b') {
  10175c:	83 7d fc 08          	cmpl   $0x8,-0x4(%ebp)
  101760:	0f 84 10 00 00 00    	je     101776 <serial_putc+0x26>
        serial_putc_sub(c);
  101766:	8b 45 fc             	mov    -0x4(%ebp),%eax
  101769:	89 04 24             	mov    %eax,(%esp)
  10176c:	e8 0f 02 00 00       	call   101980 <serial_putc_sub>
    }
  101771:	e9 3c 00 00 00       	jmp    1017b2 <serial_putc+0x62>
  101776:	b8 08 00 00 00       	mov    $0x8,%eax
        serial_putc_sub('\b');
  10177b:	c7 04 24 08 00 00 00 	movl   $0x8,(%esp)
  101782:	89 45 f8             	mov    %eax,-0x8(%ebp)
  101785:	e8 f6 01 00 00       	call   101980 <serial_putc_sub>
  10178a:	b8 20 00 00 00       	mov    $0x20,%eax
        serial_putc_sub(' ');
  10178f:	c7 04 24 20 00 00 00 	movl   $0x20,(%esp)
  101796:	89 45 f4             	mov    %eax,-0xc(%ebp)
  101799:	e8 e2 01 00 00       	call   101980 <serial_putc_sub>
  10179e:	b8 08 00 00 00       	mov    $0x8,%eax
        serial_putc_sub('\b');
  1017a3:	c7 04 24 08 00 00 00 	movl   $0x8,(%esp)
  1017aa:	89 45 f0             	mov    %eax,-0x10(%ebp)
  1017ad:	e8 ce 01 00 00       	call   101980 <serial_putc_sub>
}
  1017b2:	83 c4 18             	add    $0x18,%esp
  1017b5:	5d                   	pop    %ebp
  1017b6:	c3                   	ret    
  1017b7:	66 0f 1f 84 00 00 00 	nopw   0x0(%eax,%eax,1)
  1017be:	00 00 

001017c0 <__intr_restore>:

static inline void
__intr_restore(bool flag) {
  1017c0:	55                   	push   %ebp
  1017c1:	89 e5                	mov    %esp,%ebp
  1017c3:	83 ec 08             	sub    $0x8,%esp
  1017c6:	8b 45 08             	mov    0x8(%ebp),%eax
  1017c9:	89 45 fc             	mov    %eax,-0x4(%ebp)
    if (flag) {
  1017cc:	83 7d fc 00          	cmpl   $0x0,-0x4(%ebp)
  1017d0:	0f 84 05 00 00 00    	je     1017db <__intr_restore+0x1b>
        intr_enable();
  1017d6:	e8 35 06 00 00       	call   101e10 <intr_enable>
    }
}
  1017db:	83 c4 08             	add    $0x8,%esp
  1017de:	5d                   	pop    %ebp
  1017df:	c3                   	ret    

001017e0 <cons_getc>:
/* *
 * cons_getc - return the next input character from console,
 * or 0 if none waiting.
 * */
int
cons_getc(void) {
  1017e0:	55                   	push   %ebp
  1017e1:	89 e5                	mov    %esp,%ebp
    int c = 0;
  1017e3:	83 ec 18             	sub    $0x18,%esp
  1017e6:	c7 45 fc 00 00 00 00 	movl   $0x0,-0x4(%ebp)
    bool intr_flag;
    local_intr_save(intr_flag);
  1017ed:	e8 7e fc ff ff       	call   101470 <__intr_save>
  1017f2:	89 45 f8             	mov    %eax,-0x8(%ebp)
    {
        // poll for any pending input characters,
        // so that this function works even when interrupts are disabled
        // (e.g., when called from the kernel monitor).
        serial_intr();
  1017f5:	e8 c6 f8 ff ff       	call   1010c0 <serial_intr>
        kbd_intr();
  1017fa:	e8 61 00 00 00       	call   101860 <kbd_intr>

        // grab the next character from the input buffer.
        if (cons.rpos != cons.wpos) {
  1017ff:	a1 0c 40 11 00       	mov    0x11400c,%eax
  101804:	3b 05 10 40 11 00    	cmp    0x114010,%eax
  10180a:	0f 84 3a 00 00 00    	je     10184a <cons_getc+0x6a>
            c = cons.buf[cons.rpos ++];
  101810:	a1 0c 40 11 00       	mov    0x11400c,%eax
  101815:	89 c1                	mov    %eax,%ecx
  101817:	83 c1 01             	add    $0x1,%ecx
  10181a:	89 0d 0c 40 11 00    	mov    %ecx,0x11400c
  101820:	0f b6 04 05 0c 3e 11 	movzbl 0x113e0c(,%eax,1),%eax
  101827:	00 
  101828:	89 45 fc             	mov    %eax,-0x4(%ebp)
            if (cons.rpos == CONSBUFSIZE) {
  10182b:	81 3d 0c 40 11 00 00 	cmpl   $0x200,0x11400c
  101832:	02 00 00 
  101835:	0f 85 0a 00 00 00    	jne    101845 <cons_getc+0x65>
                cons.rpos = 0;
  10183b:	c7 05 0c 40 11 00 00 	movl   $0x0,0x11400c
  101842:	00 00 00 
            }
        }
  101845:	e9 00 00 00 00       	jmp    10184a <cons_getc+0x6a>
    }
    local_intr_restore(intr_flag);
  10184a:	8b 45 f8             	mov    -0x8(%ebp),%eax
  10184d:	89 04 24             	mov    %eax,(%esp)
  101850:	e8 6b ff ff ff       	call   1017c0 <__intr_restore>
    return c;
  101855:	8b 45 fc             	mov    -0x4(%ebp),%eax
  101858:	83 c4 18             	add    $0x18,%esp
  10185b:	5d                   	pop    %ebp
  10185c:	c3                   	ret    
  10185d:	0f 1f 00             	nopl   (%eax)

00101860 <kbd_intr>:
kbd_intr(void) {
  101860:	55                   	push   %ebp
  101861:	89 e5                	mov    %esp,%ebp
  101863:	83 ec 08             	sub    $0x8,%esp
  101866:	8d 05 10 1a 10 00    	lea    0x101a10,%eax
    cons_intr(kbd_proc_data);
  10186c:	89 04 24             	mov    %eax,(%esp)
  10186f:	e8 7c f8 ff ff       	call   1010f0 <cons_intr>
}
  101874:	83 c4 08             	add    $0x8,%esp
  101877:	5d                   	pop    %ebp
  101878:	c3                   	ret    
  101879:	0f 1f 80 00 00 00 00 	nopl   0x0(%eax)

00101880 <lpt_putc_sub>:
lpt_putc_sub(int c) {
  101880:	55                   	push   %ebp
  101881:	89 e5                	mov    %esp,%ebp
  101883:	83 ec 28             	sub    $0x28,%esp
  101886:	8b 45 08             	mov    0x8(%ebp),%eax
  101889:	89 45 ec             	mov    %eax,-0x14(%ebp)
    for (i = 0; !(inb(LPTPORT + 1) & 0x80) && i < 12800; i ++) {
  10188c:	c7 45 e8 00 00 00 00 	movl   $0x0,-0x18(%ebp)
  101893:	66 c7 45 f2 79 03    	movw   $0x379,-0xe(%ebp)
    asm volatile ("inb %1, %0" : "=a" (data) : "d" (port) : "memory");
  101899:	66 8b 55 f2          	mov    -0xe(%ebp),%dx
  10189d:	ec                   	in     (%dx),%al
  10189e:	31 c9                	xor    %ecx,%ecx
  1018a0:	88 cc                	mov    %cl,%ah
  1018a2:	88 45 f1             	mov    %al,-0xf(%ebp)
  1018a5:	0f b6 4d f1          	movzbl -0xf(%ebp),%ecx
  1018a9:	81 e1 80 00 00 00    	and    $0x80,%ecx
  1018af:	83 f9 00             	cmp    $0x0,%ecx
  1018b2:	88 65 e7             	mov    %ah,-0x19(%ebp)
  1018b5:	0f 85 0d 00 00 00    	jne    1018c8 <lpt_putc_sub+0x48>
  1018bb:	81 7d e8 00 32 00 00 	cmpl   $0x3200,-0x18(%ebp)
  1018c2:	0f 9c c0             	setl   %al
  1018c5:	88 45 e7             	mov    %al,-0x19(%ebp)
  1018c8:	8a 45 e7             	mov    -0x19(%ebp),%al
  1018cb:	a8 01                	test   $0x1,%al
  1018cd:	0f 85 05 00 00 00    	jne    1018d8 <lpt_putc_sub+0x58>
  1018d3:	e9 13 00 00 00       	jmp    1018eb <lpt_putc_sub+0x6b>
        delay();
  1018d8:	e8 53 00 00 00       	call   101930 <delay>
    for (i = 0; !(inb(LPTPORT + 1) & 0x80) && i < 12800; i ++) {
  1018dd:	8b 45 e8             	mov    -0x18(%ebp),%eax
  1018e0:	83 c0 01             	add    $0x1,%eax
  1018e3:	89 45 e8             	mov    %eax,-0x18(%ebp)
  1018e6:	e9 a8 ff ff ff       	jmp    101893 <lpt_putc_sub+0x13>
    outb(LPTPORT + 0, c);
  1018eb:	8b 45 ec             	mov    -0x14(%ebp),%eax
  1018ee:	88 c1                	mov    %al,%cl
  1018f0:	66 c7 45 f6 78 03    	movw   $0x378,-0xa(%ebp)
  1018f6:	88 4d f5             	mov    %cl,-0xb(%ebp)
    asm volatile ("outb %0, %1" :: "a" (data), "d" (port) : "memory");
  1018f9:	8a 45 f5             	mov    -0xb(%ebp),%al
  1018fc:	66 8b 55 f6          	mov    -0xa(%ebp),%dx
  101900:	ee                   	out    %al,(%dx)
    outb(LPTPORT + 2, 0x08 | 0x04 | 0x01);
  101901:	66 c7 45 fa 7a 03    	movw   $0x37a,-0x6(%ebp)
  101907:	c6 45 f9 0d          	movb   $0xd,-0x7(%ebp)
  10190b:	8a 45 f9             	mov    -0x7(%ebp),%al
  10190e:	66 8b 55 fa          	mov    -0x6(%ebp),%dx
  101912:	ee                   	out    %al,(%dx)
    outb(LPTPORT + 2, 0x08);
  101913:	66 c7 45 fe 7a 03    	movw   $0x37a,-0x2(%ebp)
  101919:	c6 45 fd 08          	movb   $0x8,-0x3(%ebp)
  10191d:	8a 45 fd             	mov    -0x3(%ebp),%al
  101920:	66 8b 55 fe          	mov    -0x2(%ebp),%dx
  101924:	ee                   	out    %al,(%dx)
}
  101925:	83 c4 28             	add    $0x28,%esp
  101928:	5d                   	pop    %ebp
  101929:	c3                   	ret    
  10192a:	66 0f 1f 44 00 00    	nopw   0x0(%eax,%eax,1)

00101930 <delay>:
delay(void) {
  101930:	55                   	push   %ebp
  101931:	89 e5                	mov    %esp,%ebp
    inb(0x84);
  101933:	83 ec 10             	sub    $0x10,%esp
  101936:	66 c7 45 f2 84 00    	movw   $0x84,-0xe(%ebp)
    asm volatile ("inb %1, %0" : "=a" (data) : "d" (port) : "memory");
  10193c:	66 8b 55 f2          	mov    -0xe(%ebp),%dx
  101940:	ec                   	in     (%dx),%al
  101941:	88 45 f1             	mov    %al,-0xf(%ebp)
    inb(0x84);
  101944:	66 c7 45 f6 84 00    	movw   $0x84,-0xa(%ebp)
  10194a:	66 8b 55 f6          	mov    -0xa(%ebp),%dx
  10194e:	ec                   	in     (%dx),%al
  10194f:	88 45 f5             	mov    %al,-0xb(%ebp)
    inb(0x84);
  101952:	66 c7 45 fa 84 00    	movw   $0x84,-0x6(%ebp)
  101958:	66 8b 55 fa          	mov    -0x6(%ebp),%dx
  10195c:	ec                   	in     (%dx),%al
  10195d:	88 45 f9             	mov    %al,-0x7(%ebp)
    inb(0x84);
  101960:	66 c7 45 fe 84 00    	movw   $0x84,-0x2(%ebp)
  101966:	66 8b 55 fe          	mov    -0x2(%ebp),%dx
  10196a:	ec                   	in     (%dx),%al
  10196b:	88 45 fd             	mov    %al,-0x3(%ebp)
}
  10196e:	83 c4 10             	add    $0x10,%esp
  101971:	5d                   	pop    %ebp
  101972:	c3                   	ret    
  101973:	66 66 66 66 2e 0f 1f 	data16 data16 data16 nopw %cs:0x0(%eax,%eax,1)
  10197a:	84 00 00 00 00 00 

00101980 <serial_putc_sub>:
serial_putc_sub(int c) {
  101980:	55                   	push   %ebp
  101981:	89 e5                	mov    %esp,%ebp
  101983:	83 ec 18             	sub    $0x18,%esp
  101986:	8b 45 08             	mov    0x8(%ebp),%eax
  101989:	89 45 f4             	mov    %eax,-0xc(%ebp)
    for (i = 0; !(inb(COM1 + COM_LSR) & COM_LSR_TXRDY) && i < 12800; i ++) {
  10198c:	c7 45 f0 00 00 00 00 	movl   $0x0,-0x10(%ebp)
  101993:	66 c7 45 fa fd 03    	movw   $0x3fd,-0x6(%ebp)
  101999:	66 8b 55 fa          	mov    -0x6(%ebp),%dx
  10199d:	ec                   	in     (%dx),%al
  10199e:	31 c9                	xor    %ecx,%ecx
  1019a0:	88 cc                	mov    %cl,%ah
  1019a2:	88 45 f9             	mov    %al,-0x7(%ebp)
  1019a5:	0f b6 4d f9          	movzbl -0x7(%ebp),%ecx
  1019a9:	83 e1 20             	and    $0x20,%ecx
  1019ac:	83 f9 00             	cmp    $0x0,%ecx
  1019af:	88 65 ef             	mov    %ah,-0x11(%ebp)
  1019b2:	0f 85 0d 00 00 00    	jne    1019c5 <serial_putc_sub+0x45>
  1019b8:	81 7d f0 00 32 00 00 	cmpl   $0x3200,-0x10(%ebp)
  1019bf:	0f 9c c0             	setl   %al
  1019c2:	88 45 ef             	mov    %al,-0x11(%ebp)
  1019c5:	8a 45 ef             	mov    -0x11(%ebp),%al
  1019c8:	a8 01                	test   $0x1,%al
  1019ca:	0f 85 05 00 00 00    	jne    1019d5 <serial_putc_sub+0x55>
  1019d0:	e9 13 00 00 00       	jmp    1019e8 <serial_putc_sub+0x68>
        delay();
  1019d5:	e8 56 ff ff ff       	call   101930 <delay>
    for (i = 0; !(inb(COM1 + COM_LSR) & COM_LSR_TXRDY) && i < 12800; i ++) {
  1019da:	8b 45 f0             	mov    -0x10(%ebp),%eax
  1019dd:	83 c0 01             	add    $0x1,%eax
  1019e0:	89 45 f0             	mov    %eax,-0x10(%ebp)
  1019e3:	e9 ab ff ff ff       	jmp    101993 <serial_putc_sub+0x13>
    outb(COM1 + COM_TX, c);
  1019e8:	8b 45 f4             	mov    -0xc(%ebp),%eax
  1019eb:	88 c1                	mov    %al,%cl
  1019ed:	66 c7 45 fe f8 03    	movw   $0x3f8,-0x2(%ebp)
  1019f3:	88 4d fd             	mov    %cl,-0x3(%ebp)
    asm volatile ("outb %0, %1" :: "a" (data), "d" (port) : "memory");
  1019f6:	8a 45 fd             	mov    -0x3(%ebp),%al
  1019f9:	66 8b 55 fe          	mov    -0x2(%ebp),%dx
  1019fd:	ee                   	out    %al,(%dx)
}
  1019fe:	83 c4 18             	add    $0x18,%esp
  101a01:	5d                   	pop    %ebp
  101a02:	c3                   	ret    
  101a03:	66 66 66 66 2e 0f 1f 	data16 data16 data16 nopw %cs:0x0(%eax,%eax,1)
  101a0a:	84 00 00 00 00 00 

00101a10 <kbd_proc_data>:
kbd_proc_data(void) {
  101a10:	55                   	push   %ebp
  101a11:	89 e5                	mov    %esp,%ebp
    if ((inb(KBSTATP) & KBS_DIB) == 0) {
  101a13:	83 ec 28             	sub    $0x28,%esp
  101a16:	66 c7 45 f6 64 00    	movw   $0x64,-0xa(%ebp)
    asm volatile ("inb %1, %0" : "=a" (data) : "d" (port) : "memory");
  101a1c:	66 8b 55 f6          	mov    -0xa(%ebp),%dx
  101a20:	ec                   	in     (%dx),%al
  101a21:	88 45 f5             	mov    %al,-0xb(%ebp)
  101a24:	0f b6 4d f5          	movzbl -0xb(%ebp),%ecx
  101a28:	83 e1 01             	and    $0x1,%ecx
  101a2b:	83 f9 00             	cmp    $0x0,%ecx
  101a2e:	0f 85 0c 00 00 00    	jne    101a40 <kbd_proc_data+0x30>
        return -1;
  101a34:	c7 45 f0 ff ff ff ff 	movl   $0xffffffff,-0x10(%ebp)
  101a3b:	e9 d4 01 00 00       	jmp    101c14 <kbd_proc_data+0x204>
    data = inb(KBDATAP);
  101a40:	66 c7 45 fa 60 00    	movw   $0x60,-0x6(%ebp)
  101a46:	66 8b 55 fa          	mov    -0x6(%ebp),%dx
  101a4a:	ec                   	in     (%dx),%al
  101a4b:	88 45 f9             	mov    %al,-0x7(%ebp)
    return data;
  101a4e:	8a 45 f9             	mov    -0x7(%ebp),%al
  101a51:	88 45 eb             	mov    %al,-0x15(%ebp)
    if (data == 0xE0) {
  101a54:	0f b6 4d eb          	movzbl -0x15(%ebp),%ecx
  101a58:	81 f9 e0 00 00 00    	cmp    $0xe0,%ecx
  101a5e:	0f 85 19 00 00 00    	jne    101a7d <kbd_proc_data+0x6d>
        shift |= E0ESC;
  101a64:	a1 20 40 11 00       	mov    0x114020,%eax
  101a69:	83 c8 40             	or     $0x40,%eax
  101a6c:	a3 20 40 11 00       	mov    %eax,0x114020
        return 0;
  101a71:	c7 45 f0 00 00 00 00 	movl   $0x0,-0x10(%ebp)
  101a78:	e9 97 01 00 00       	jmp    101c14 <kbd_proc_data+0x204>
    } else if (data & 0x80) {
  101a7d:	0f b6 45 eb          	movzbl -0x15(%ebp),%eax
  101a81:	25 80 00 00 00       	and    $0x80,%eax
  101a86:	83 f8 00             	cmp    $0x0,%eax
  101a89:	0f 84 58 00 00 00    	je     101ae7 <kbd_proc_data+0xd7>
        data = (shift & E0ESC ? data : data & 0x7F);
  101a8f:	a1 20 40 11 00       	mov    0x114020,%eax
  101a94:	83 e0 40             	and    $0x40,%eax
  101a97:	83 f8 00             	cmp    $0x0,%eax
  101a9a:	0f 84 0c 00 00 00    	je     101aac <kbd_proc_data+0x9c>
  101aa0:	0f b6 45 eb          	movzbl -0x15(%ebp),%eax
  101aa4:	89 45 e4             	mov    %eax,-0x1c(%ebp)
  101aa7:	e9 0a 00 00 00       	jmp    101ab6 <kbd_proc_data+0xa6>
  101aac:	0f b6 45 eb          	movzbl -0x15(%ebp),%eax
  101ab0:	83 e0 7f             	and    $0x7f,%eax
  101ab3:	89 45 e4             	mov    %eax,-0x1c(%ebp)
  101ab6:	8b 45 e4             	mov    -0x1c(%ebp),%eax
  101ab9:	88 c1                	mov    %al,%cl
  101abb:	88 4d eb             	mov    %cl,-0x15(%ebp)
        shift &= ~(shiftcode[data] | E0ESC);
  101abe:	0f b6 45 eb          	movzbl -0x15(%ebp),%eax
  101ac2:	0f b6 04 05 44 30 11 	movzbl 0x113044(,%eax,1),%eax
  101ac9:	00 
  101aca:	83 c8 40             	or     $0x40,%eax
  101acd:	83 f0 ff             	xor    $0xffffffff,%eax
  101ad0:	23 05 20 40 11 00    	and    0x114020,%eax
  101ad6:	a3 20 40 11 00       	mov    %eax,0x114020
        return 0;
  101adb:	c7 45 f0 00 00 00 00 	movl   $0x0,-0x10(%ebp)
  101ae2:	e9 2d 01 00 00       	jmp    101c14 <kbd_proc_data+0x204>
    } else if (shift & E0ESC) {
  101ae7:	a1 20 40 11 00       	mov    0x114020,%eax
  101aec:	83 e0 40             	and    $0x40,%eax
  101aef:	83 f8 00             	cmp    $0x0,%eax
  101af2:	0f 84 1b 00 00 00    	je     101b13 <kbd_proc_data+0x103>
        data |= 0x80;
  101af8:	0f b6 45 eb          	movzbl -0x15(%ebp),%eax
  101afc:	0d 80 00 00 00       	or     $0x80,%eax
  101b01:	88 c1                	mov    %al,%cl
  101b03:	88 4d eb             	mov    %cl,-0x15(%ebp)
        shift &= ~E0ESC;
  101b06:	a1 20 40 11 00       	mov    0x114020,%eax
  101b0b:	83 e0 bf             	and    $0xffffffbf,%eax
  101b0e:	a3 20 40 11 00       	mov    %eax,0x114020
  101b13:	e9 00 00 00 00       	jmp    101b18 <kbd_proc_data+0x108>
  101b18:	e9 00 00 00 00       	jmp    101b1d <kbd_proc_data+0x10d>
    shift |= shiftcode[data];
  101b1d:	0f b6 45 eb          	movzbl -0x15(%ebp),%eax
  101b21:	0f b6 04 05 44 30 11 	movzbl 0x113044(,%eax,1),%eax
  101b28:	00 
  101b29:	0b 05 20 40 11 00    	or     0x114020,%eax
  101b2f:	a3 20 40 11 00       	mov    %eax,0x114020
    shift ^= togglecode[data];
  101b34:	0f b6 45 eb          	movzbl -0x15(%ebp),%eax
  101b38:	0f b6 04 05 44 31 11 	movzbl 0x113144(,%eax,1),%eax
  101b3f:	00 
  101b40:	33 05 20 40 11 00    	xor    0x114020,%eax
  101b46:	a3 20 40 11 00       	mov    %eax,0x114020
    c = charcode[shift & (CTL | SHIFT)][data];
  101b4b:	0f b6 45 eb          	movzbl -0x15(%ebp),%eax
  101b4f:	8b 0d 20 40 11 00    	mov    0x114020,%ecx
  101b55:	83 e1 03             	and    $0x3,%ecx
  101b58:	8b 0c 8d 44 32 11 00 	mov    0x113244(,%ecx,4),%ecx
  101b5f:	0f b6 04 01          	movzbl (%ecx,%eax,1),%eax
  101b63:	89 45 ec             	mov    %eax,-0x14(%ebp)
    if (shift & CAPSLOCK) {
  101b66:	a1 20 40 11 00       	mov    0x114020,%eax
  101b6b:	83 e0 08             	and    $0x8,%eax
  101b6e:	83 f8 00             	cmp    $0x0,%eax
  101b71:	0f 84 51 00 00 00    	je     101bc8 <kbd_proc_data+0x1b8>
  101b77:	b8 61 00 00 00       	mov    $0x61,%eax
        if ('a' <= c && c <= 'z')
  101b7c:	3b 45 ec             	cmp    -0x14(%ebp),%eax
  101b7f:	0f 8f 18 00 00 00    	jg     101b9d <kbd_proc_data+0x18d>
  101b85:	83 7d ec 7a          	cmpl   $0x7a,-0x14(%ebp)
  101b89:	0f 8f 0e 00 00 00    	jg     101b9d <kbd_proc_data+0x18d>
            c += 'A' - 'a';
  101b8f:	8b 45 ec             	mov    -0x14(%ebp),%eax
  101b92:	83 c0 e0             	add    $0xffffffe0,%eax
  101b95:	89 45 ec             	mov    %eax,-0x14(%ebp)
  101b98:	e9 26 00 00 00       	jmp    101bc3 <kbd_proc_data+0x1b3>
  101b9d:	b8 41 00 00 00       	mov    $0x41,%eax
        else if ('A' <= c && c <= 'Z')
  101ba2:	3b 45 ec             	cmp    -0x14(%ebp),%eax
  101ba5:	0f 8f 13 00 00 00    	jg     101bbe <kbd_proc_data+0x1ae>
  101bab:	83 7d ec 5a          	cmpl   $0x5a,-0x14(%ebp)
  101baf:	0f 8f 09 00 00 00    	jg     101bbe <kbd_proc_data+0x1ae>
            c += 'a' - 'A';
  101bb5:	8b 45 ec             	mov    -0x14(%ebp),%eax
  101bb8:	83 c0 20             	add    $0x20,%eax
  101bbb:	89 45 ec             	mov    %eax,-0x14(%ebp)
  101bbe:	e9 00 00 00 00       	jmp    101bc3 <kbd_proc_data+0x1b3>
    }
  101bc3:	e9 00 00 00 00       	jmp    101bc8 <kbd_proc_data+0x1b8>
    if (!(~shift & (CTL | ALT)) && c == KEY_DEL) {
  101bc8:	a1 20 40 11 00       	mov    0x114020,%eax
  101bcd:	83 f0 ff             	xor    $0xffffffff,%eax
  101bd0:	83 e0 06             	and    $0x6,%eax
  101bd3:	83 f8 00             	cmp    $0x0,%eax
  101bd6:	0f 85 32 00 00 00    	jne    101c0e <kbd_proc_data+0x1fe>
  101bdc:	81 7d ec e9 00 00 00 	cmpl   $0xe9,-0x14(%ebp)
  101be3:	0f 85 25 00 00 00    	jne    101c0e <kbd_proc_data+0x1fe>
  101be9:	8d 05 5a f3 10 00    	lea    0x10f35a,%eax
        cprintf("Rebooting!\n");
  101bef:	89 04 24             	mov    %eax,(%esp)
  101bf2:	e8 49 e6 ff ff       	call   100240 <cprintf>
        outb(0x92, 0x3); // courtesy of Chris Frost
  101bf7:	66 c7 45 fe 92 00    	movw   $0x92,-0x2(%ebp)
  101bfd:	c6 45 fd 03          	movb   $0x3,-0x3(%ebp)
    asm volatile ("outb %0, %1" :: "a" (data), "d" (port) : "memory");
  101c01:	8a 4d fd             	mov    -0x3(%ebp),%cl
  101c04:	66 8b 55 fe          	mov    -0x2(%ebp),%dx
  101c08:	89 45 e0             	mov    %eax,-0x20(%ebp)
  101c0b:	88 c8                	mov    %cl,%al
  101c0d:	ee                   	out    %al,(%dx)
    return c;
  101c0e:	8b 45 ec             	mov    -0x14(%ebp),%eax
  101c11:	89 45 f0             	mov    %eax,-0x10(%ebp)
}
  101c14:	8b 45 f0             	mov    -0x10(%ebp),%eax
  101c17:	83 c4 28             	add    $0x28,%esp
  101c1a:	5d                   	pop    %ebp
  101c1b:	c3                   	ret    
  101c1c:	66 90                	xchg   %ax,%ax
  101c1e:	66 90                	xchg   %ax,%ax

00101c20 <pic_enable>:
        outb(IO_PIC2 + 1, mask >> 8);
    }
}

void
pic_enable(unsigned int irq) {
  101c20:	55                   	push   %ebp
  101c21:	89 e5                	mov    %esp,%ebp
  101c23:	56                   	push   %esi
  101c24:	83 ec 14             	sub    $0x14,%esp
  101c27:	8b 45 08             	mov    0x8(%ebp),%eax
  101c2a:	b9 01 00 00 00       	mov    $0x1,%ecx
  101c2f:	89 45 f8             	mov    %eax,-0x8(%ebp)
    pic_setmask(irq_mask & ~(1 << irq));
  101c32:	0f b7 05 54 35 11 00 	movzwl 0x113554,%eax
  101c39:	8b 55 f8             	mov    -0x8(%ebp),%edx
  101c3c:	89 4d f4             	mov    %ecx,-0xc(%ebp)
  101c3f:	89 d1                	mov    %edx,%ecx
  101c41:	8b 55 f4             	mov    -0xc(%ebp),%edx
  101c44:	d3 e2                	shl    %cl,%edx
  101c46:	83 f2 ff             	xor    $0xffffffff,%edx
  101c49:	21 d0                	and    %edx,%eax
  101c4b:	66 89 c6             	mov    %ax,%si
  101c4e:	0f b7 c6             	movzwl %si,%eax
  101c51:	89 04 24             	mov    %eax,(%esp)
  101c54:	e8 07 00 00 00       	call   101c60 <pic_setmask>
}
  101c59:	83 c4 14             	add    $0x14,%esp
  101c5c:	5e                   	pop    %esi
  101c5d:	5d                   	pop    %ebp
  101c5e:	c3                   	ret    
  101c5f:	90                   	nop

00101c60 <pic_setmask>:
pic_setmask(uint16_t mask) {
  101c60:	55                   	push   %ebp
  101c61:	89 e5                	mov    %esp,%ebp
  101c63:	53                   	push   %ebx
  101c64:	56                   	push   %esi
  101c65:	83 ec 0c             	sub    $0xc,%esp
  101c68:	0f b7 45 08          	movzwl 0x8(%ebp),%eax
  101c6c:	66 89 c1             	mov    %ax,%cx
  101c6f:	66 89 4d ee          	mov    %cx,-0x12(%ebp)
    irq_mask = mask;
  101c73:	66 8b 4d ee          	mov    -0x12(%ebp),%cx
  101c77:	66 89 0d 54 35 11 00 	mov    %cx,0x113554
    if (did_init) {
  101c7e:	83 3d 24 40 11 00 00 	cmpl   $0x0,0x114024
  101c85:	0f 84 33 00 00 00    	je     101cbe <pic_setmask+0x5e>
        outb(IO_PIC1 + 1, mask);
  101c8b:	66 8b 45 ee          	mov    -0x12(%ebp),%ax
  101c8f:	88 c1                	mov    %al,%cl
  101c91:	66 c7 45 f2 21 00    	movw   $0x21,-0xe(%ebp)
  101c97:	88 4d f1             	mov    %cl,-0xf(%ebp)
  101c9a:	8a 45 f1             	mov    -0xf(%ebp),%al
  101c9d:	66 8b 55 f2          	mov    -0xe(%ebp),%dx
  101ca1:	ee                   	out    %al,(%dx)
        outb(IO_PIC2 + 1, mask >> 8);
  101ca2:	0f b7 75 ee          	movzwl -0x12(%ebp),%esi
  101ca6:	c1 fe 08             	sar    $0x8,%esi
  101ca9:	89 f3                	mov    %esi,%ebx
  101cab:	88 d8                	mov    %bl,%al
  101cad:	66 c7 45 f6 a1 00    	movw   $0xa1,-0xa(%ebp)
  101cb3:	88 45 f5             	mov    %al,-0xb(%ebp)
  101cb6:	8a 45 f5             	mov    -0xb(%ebp),%al
  101cb9:	66 8b 55 f6          	mov    -0xa(%ebp),%dx
  101cbd:	ee                   	out    %al,(%dx)
}
  101cbe:	83 c4 0c             	add    $0xc,%esp
  101cc1:	5e                   	pop    %esi
  101cc2:	5b                   	pop    %ebx
  101cc3:	5d                   	pop    %ebp
  101cc4:	c3                   	ret    
  101cc5:	66 66 2e 0f 1f 84 00 	data16 nopw %cs:0x0(%eax,%eax,1)
  101ccc:	00 00 00 00 

00101cd0 <pic_init>:

/* pic_init - initialize the 8259A interrupt controllers */
void
pic_init(void) {
  101cd0:	55                   	push   %ebp
  101cd1:	89 e5                	mov    %esp,%ebp
    did_init = 1;
  101cd3:	83 ec 48             	sub    $0x48,%esp
  101cd6:	c7 05 24 40 11 00 01 	movl   $0x1,0x114024
  101cdd:	00 00 00 

    // mask all interrupts
    outb(IO_PIC1 + 1, 0xFF);
  101ce0:	66 c7 45 ca 21 00    	movw   $0x21,-0x36(%ebp)
  101ce6:	c6 45 c9 ff          	movb   $0xff,-0x37(%ebp)
  101cea:	8a 45 c9             	mov    -0x37(%ebp),%al
  101ced:	66 8b 55 ca          	mov    -0x36(%ebp),%dx
  101cf1:	ee                   	out    %al,(%dx)
    outb(IO_PIC2 + 1, 0xFF);
  101cf2:	66 c7 45 ce a1 00    	movw   $0xa1,-0x32(%ebp)
  101cf8:	c6 45 cd ff          	movb   $0xff,-0x33(%ebp)
  101cfc:	8a 45 cd             	mov    -0x33(%ebp),%al
  101cff:	66 8b 55 ce          	mov    -0x32(%ebp),%dx
  101d03:	ee                   	out    %al,(%dx)

    // ICW1:  0001g0hi
    //    g:  0 = edge triggering, 1 = level triggering
    //    h:  0 = cascaded PICs, 1 = master only
    //    i:  0 = no ICW4, 1 = ICW4 required
    outb(IO_PIC1, 0x11);
  101d04:	66 c7 45 d2 20 00    	movw   $0x20,-0x2e(%ebp)
  101d0a:	c6 45 d1 11          	movb   $0x11,-0x2f(%ebp)
  101d0e:	8a 45 d1             	mov    -0x2f(%ebp),%al
  101d11:	66 8b 55 d2          	mov    -0x2e(%ebp),%dx
  101d15:	ee                   	out    %al,(%dx)

    // ICW2:  Vector offset
    outb(IO_PIC1 + 1, IRQ_OFFSET);
  101d16:	66 c7 45 d6 21 00    	movw   $0x21,-0x2a(%ebp)
  101d1c:	c6 45 d5 20          	movb   $0x20,-0x2b(%ebp)
  101d20:	8a 45 d5             	mov    -0x2b(%ebp),%al
  101d23:	66 8b 55 d6          	mov    -0x2a(%ebp),%dx
  101d27:	ee                   	out    %al,(%dx)

    // ICW3:  (master PIC) bit mask of IR lines connected to slaves
    //        (slave PIC) 3-bit # of slave's connection to master
    outb(IO_PIC1 + 1, 1 << IRQ_SLAVE);
  101d28:	66 c7 45 da 21 00    	movw   $0x21,-0x26(%ebp)
  101d2e:	c6 45 d9 04          	movb   $0x4,-0x27(%ebp)
  101d32:	8a 45 d9             	mov    -0x27(%ebp),%al
  101d35:	66 8b 55 da          	mov    -0x26(%ebp),%dx
  101d39:	ee                   	out    %al,(%dx)
    //    m:  0 = slave PIC, 1 = master PIC
    //        (ignored when b is 0, as the master/slave role
    //         can be hardwired).
    //    a:  1 = Automatic EOI mode
    //    p:  0 = MCS-80/85 mode, 1 = intel x86 mode
    outb(IO_PIC1 + 1, 0x3);
  101d3a:	66 c7 45 de 21 00    	movw   $0x21,-0x22(%ebp)
  101d40:	c6 45 dd 03          	movb   $0x3,-0x23(%ebp)
  101d44:	8a 45 dd             	mov    -0x23(%ebp),%al
  101d47:	66 8b 55 de          	mov    -0x22(%ebp),%dx
  101d4b:	ee                   	out    %al,(%dx)

    // Set up slave (8259A-2)
    outb(IO_PIC2, 0x11);    // ICW1
  101d4c:	66 c7 45 e2 a0 00    	movw   $0xa0,-0x1e(%ebp)
  101d52:	c6 45 e1 11          	movb   $0x11,-0x1f(%ebp)
  101d56:	8a 45 e1             	mov    -0x1f(%ebp),%al
  101d59:	66 8b 55 e2          	mov    -0x1e(%ebp),%dx
  101d5d:	ee                   	out    %al,(%dx)
    outb(IO_PIC2 + 1, IRQ_OFFSET + 8);  // ICW2
  101d5e:	66 c7 45 e6 a1 00    	movw   $0xa1,-0x1a(%ebp)
  101d64:	c6 45 e5 28          	movb   $0x28,-0x1b(%ebp)
  101d68:	8a 45 e5             	mov    -0x1b(%ebp),%al
  101d6b:	66 8b 55 e6          	mov    -0x1a(%ebp),%dx
  101d6f:	ee                   	out    %al,(%dx)
    outb(IO_PIC2 + 1, IRQ_SLAVE);       // ICW3
  101d70:	66 c7 45 ea a1 00    	movw   $0xa1,-0x16(%ebp)
  101d76:	c6 45 e9 02          	movb   $0x2,-0x17(%ebp)
  101d7a:	8a 45 e9             	mov    -0x17(%ebp),%al
  101d7d:	66 8b 55 ea          	mov    -0x16(%ebp),%dx
  101d81:	ee                   	out    %al,(%dx)
    // NB Automatic EOI mode doesn't tend to work on the slave.
    // Linux source code says it's "to be investigated".
    outb(IO_PIC2 + 1, 0x3);             // ICW4
  101d82:	66 c7 45 ee a1 00    	movw   $0xa1,-0x12(%ebp)
  101d88:	c6 45 ed 03          	movb   $0x3,-0x13(%ebp)
  101d8c:	8a 45 ed             	mov    -0x13(%ebp),%al
  101d8f:	66 8b 55 ee          	mov    -0x12(%ebp),%dx
  101d93:	ee                   	out    %al,(%dx)

    // OCW3:  0ef01prs
    //   ef:  0x = NOP, 10 = clear specific mask, 11 = set specific mask
    //    p:  0 = no polling, 1 = polling mode
    //   rs:  0x = NOP, 10 = read IRR, 11 = read ISR
    outb(IO_PIC1, 0x68);    // clear specific mask
  101d94:	66 c7 45 f2 20 00    	movw   $0x20,-0xe(%ebp)
  101d9a:	c6 45 f1 68          	movb   $0x68,-0xf(%ebp)
  101d9e:	8a 45 f1             	mov    -0xf(%ebp),%al
  101da1:	66 8b 55 f2          	mov    -0xe(%ebp),%dx
  101da5:	ee                   	out    %al,(%dx)
    outb(IO_PIC1, 0x0a);    // read IRR by default
  101da6:	66 c7 45 f6 20 00    	movw   $0x20,-0xa(%ebp)
  101dac:	c6 45 f5 0a          	movb   $0xa,-0xb(%ebp)
  101db0:	8a 45 f5             	mov    -0xb(%ebp),%al
  101db3:	66 8b 55 f6          	mov    -0xa(%ebp),%dx
  101db7:	ee                   	out    %al,(%dx)

    outb(IO_PIC2, 0x68);    // OCW3
  101db8:	66 c7 45 fa a0 00    	movw   $0xa0,-0x6(%ebp)
  101dbe:	c6 45 f9 68          	movb   $0x68,-0x7(%ebp)
  101dc2:	8a 45 f9             	mov    -0x7(%ebp),%al
  101dc5:	66 8b 55 fa          	mov    -0x6(%ebp),%dx
  101dc9:	ee                   	out    %al,(%dx)
    outb(IO_PIC2, 0x0a);    // OCW3
  101dca:	66 c7 45 fe a0 00    	movw   $0xa0,-0x2(%ebp)
  101dd0:	c6 45 fd 0a          	movb   $0xa,-0x3(%ebp)
  101dd4:	8a 45 fd             	mov    -0x3(%ebp),%al
  101dd7:	66 8b 55 fe          	mov    -0x2(%ebp),%dx
  101ddb:	ee                   	out    %al,(%dx)

    if (irq_mask != 0xFFFF) {
  101ddc:	0f b7 0d 54 35 11 00 	movzwl 0x113554,%ecx
  101de3:	81 f9 ff ff 00 00    	cmp    $0xffff,%ecx
  101de9:	0f 84 0f 00 00 00    	je     101dfe <pic_init+0x12e>
        pic_setmask(irq_mask);
  101def:	0f b7 05 54 35 11 00 	movzwl 0x113554,%eax
  101df6:	89 04 24             	mov    %eax,(%esp)
  101df9:	e8 62 fe ff ff       	call   101c60 <pic_setmask>
    }
}
  101dfe:	83 c4 48             	add    $0x48,%esp
  101e01:	5d                   	pop    %ebp
  101e02:	c3                   	ret    
  101e03:	66 90                	xchg   %ax,%ax
  101e05:	66 90                	xchg   %ax,%ax
  101e07:	66 90                	xchg   %ax,%ax
  101e09:	66 90                	xchg   %ax,%ax
  101e0b:	66 90                	xchg   %ax,%ax
  101e0d:	66 90                	xchg   %ax,%ax
  101e0f:	90                   	nop

00101e10 <intr_enable>:
#include <x86.h>
#include <intr.h>

/* intr_enable - enable irq interrupt */
void
intr_enable(void) {
  101e10:	55                   	push   %ebp
  101e11:	89 e5                	mov    %esp,%ebp
    asm volatile ("sti");
  101e13:	fb                   	sti    
    sti();
}
  101e14:	5d                   	pop    %ebp
  101e15:	c3                   	ret    
  101e16:	66 2e 0f 1f 84 00 00 	nopw   %cs:0x0(%eax,%eax,1)
  101e1d:	00 00 00 

00101e20 <intr_disable>:

/* intr_disable - disable irq interrupt */
void
intr_disable(void) {
  101e20:	55                   	push   %ebp
  101e21:	89 e5                	mov    %esp,%ebp
    asm volatile ("cli" ::: "memory");
  101e23:	fa                   	cli    
    cli();
}
  101e24:	5d                   	pop    %ebp
  101e25:	c3                   	ret    
  101e26:	66 90                	xchg   %ax,%ax
  101e28:	66 90                	xchg   %ax,%ax
  101e2a:	66 90                	xchg   %ax,%ax
  101e2c:	66 90                	xchg   %ax,%ax
  101e2e:	66 90                	xchg   %ax,%ax

00101e30 <idt_init>:
    sizeof(idt) - 1, (uintptr_t)idt
};

/* idt_init - initialize IDT to each of the entry points in kern/trap/vectors.S */
void
idt_init(void) {
  101e30:	55                   	push   %ebp
  101e31:	89 e5                	mov    %esp,%ebp
      * (3) After setup the contents of IDT, you will let CPU know where is the IDT by using 'lidt' instruction.
      *     You don't know the meaning of this instruction? just google it! and check the libs/x86.h to know more.
      *     Notice: the argument of lidt is idt_pd. try to find it!
      */
    extern uintptr_t __vectors[];
    for (int i = 0; i < sizeof(idt) / sizeof(struct gatedesc); i++)
  101e33:	56                   	push   %esi
  101e34:	83 ec 08             	sub    $0x8,%esp
  101e37:	c7 45 f4 00 00 00 00 	movl   $0x0,-0xc(%ebp)
  101e3e:	81 7d f4 00 01 00 00 	cmpl   $0x100,-0xc(%ebp)
  101e45:	0f 83 22 01 00 00    	jae    101f6d <idt_init+0x13d>
        SETGATE(idt[i], 0, GD_KTEXT, __vectors[i], DPL_KERNEL);
  101e4b:	8b 45 f4             	mov    -0xc(%ebp),%eax
  101e4e:	66 8b 0c 85 c0 35 11 	mov    0x1135c0(,%eax,4),%cx
  101e55:	00 
  101e56:	66 89 0c c5 28 40 11 	mov    %cx,0x114028(,%eax,8)
  101e5d:	00 
  101e5e:	8b 45 f4             	mov    -0xc(%ebp),%eax
  101e61:	66 c7 04 c5 2a 40 11 	movw   $0x8,0x11402a(,%eax,8)
  101e68:	00 08 00 
  101e6b:	8b 45 f4             	mov    -0xc(%ebp),%eax
  101e6e:	8b 14 c5 28 40 11 00 	mov    0x114028(,%eax,8),%edx
  101e75:	8b 34 c5 2c 40 11 00 	mov    0x11402c(,%eax,8),%esi
  101e7c:	83 e6 e0             	and    $0xffffffe0,%esi
  101e7f:	89 14 c5 28 40 11 00 	mov    %edx,0x114028(,%eax,8)
  101e86:	89 34 c5 2c 40 11 00 	mov    %esi,0x11402c(,%eax,8)
  101e8d:	8b 45 f4             	mov    -0xc(%ebp),%eax
  101e90:	8b 14 c5 28 40 11 00 	mov    0x114028(,%eax,8),%edx
  101e97:	8b 34 c5 2c 40 11 00 	mov    0x11402c(,%eax,8),%esi
  101e9e:	81 e6 1f ff ff ff    	and    $0xffffff1f,%esi
  101ea4:	89 14 c5 28 40 11 00 	mov    %edx,0x114028(,%eax,8)
  101eab:	89 34 c5 2c 40 11 00 	mov    %esi,0x11402c(,%eax,8)
  101eb2:	8b 45 f4             	mov    -0xc(%ebp),%eax
  101eb5:	8b 14 c5 28 40 11 00 	mov    0x114028(,%eax,8),%edx
  101ebc:	8b 34 c5 2c 40 11 00 	mov    0x11402c(,%eax,8),%esi
  101ec3:	81 e6 ff f0 ff ff    	and    $0xfffff0ff,%esi
  101ec9:	81 ce 00 0e 00 00    	or     $0xe00,%esi
  101ecf:	89 14 c5 28 40 11 00 	mov    %edx,0x114028(,%eax,8)
  101ed6:	89 34 c5 2c 40 11 00 	mov    %esi,0x11402c(,%eax,8)
  101edd:	8b 45 f4             	mov    -0xc(%ebp),%eax
  101ee0:	8b 14 c5 28 40 11 00 	mov    0x114028(,%eax,8),%edx
  101ee7:	8b 34 c5 2c 40 11 00 	mov    0x11402c(,%eax,8),%esi
  101eee:	81 e6 ff ef ff ff    	and    $0xffffefff,%esi
  101ef4:	89 14 c5 28 40 11 00 	mov    %edx,0x114028(,%eax,8)
  101efb:	89 34 c5 2c 40 11 00 	mov    %esi,0x11402c(,%eax,8)
  101f02:	8b 45 f4             	mov    -0xc(%ebp),%eax
  101f05:	8b 14 c5 28 40 11 00 	mov    0x114028(,%eax,8),%edx
  101f0c:	8b 34 c5 2c 40 11 00 	mov    0x11402c(,%eax,8),%esi
  101f13:	81 e6 ff 9f ff ff    	and    $0xffff9fff,%esi
  101f19:	89 14 c5 28 40 11 00 	mov    %edx,0x114028(,%eax,8)
  101f20:	89 34 c5 2c 40 11 00 	mov    %esi,0x11402c(,%eax,8)
  101f27:	8b 45 f4             	mov    -0xc(%ebp),%eax
  101f2a:	8b 14 c5 28 40 11 00 	mov    0x114028(,%eax,8),%edx
  101f31:	8b 34 c5 2c 40 11 00 	mov    0x11402c(,%eax,8),%esi
  101f38:	81 ce 00 80 00 00    	or     $0x8000,%esi
  101f3e:	89 14 c5 28 40 11 00 	mov    %edx,0x114028(,%eax,8)
  101f45:	89 34 c5 2c 40 11 00 	mov    %esi,0x11402c(,%eax,8)
  101f4c:	8b 45 f4             	mov    -0xc(%ebp),%eax
  101f4f:	66 8b 0c 85 c2 35 11 	mov    0x1135c2(,%eax,4),%cx
  101f56:	00 
  101f57:	66 89 0c c5 2e 40 11 	mov    %cx,0x11402e(,%eax,8)
  101f5e:	00 
    for (int i = 0; i < sizeof(idt) / sizeof(struct gatedesc); i++)
  101f5f:	8b 45 f4             	mov    -0xc(%ebp),%eax
  101f62:	83 c0 01             	add    $0x1,%eax
  101f65:	89 45 f4             	mov    %eax,-0xc(%ebp)
  101f68:	e9 d1 fe ff ff       	jmp    101e3e <idt_init+0xe>
  101f6d:	8d 05 58 35 11 00    	lea    0x113558,%eax
    SETGATE(idt[T_SYSCALL], 1, GD_KTEXT, __vectors[T_SYSCALL], DPL_USER);
  101f73:	66 8b 0d c0 37 11 00 	mov    0x1137c0,%cx
  101f7a:	66 89 0d 28 44 11 00 	mov    %cx,0x114428
  101f81:	66 c7 05 2a 44 11 00 	movw   $0x8,0x11442a
  101f88:	08 00 
  101f8a:	8a 15 2c 44 11 00    	mov    0x11442c,%dl
  101f90:	80 e2 e0             	and    $0xe0,%dl
  101f93:	88 15 2c 44 11 00    	mov    %dl,0x11442c
  101f99:	c6 05 2c 44 11 00 00 	movb   $0x0,0x11442c
  101fa0:	8a 15 2d 44 11 00    	mov    0x11442d,%dl
  101fa6:	80 ca 0f             	or     $0xf,%dl
  101fa9:	88 15 2d 44 11 00    	mov    %dl,0x11442d
  101faf:	80 e2 ef             	and    $0xef,%dl
  101fb2:	88 15 2d 44 11 00    	mov    %dl,0x11442d
  101fb8:	80 ca 60             	or     $0x60,%dl
  101fbb:	88 15 2d 44 11 00    	mov    %dl,0x11442d
  101fc1:	c6 05 2d 44 11 00 ef 	movb   $0xef,0x11442d
  101fc8:	66 8b 0d c2 37 11 00 	mov    0x1137c2,%cx
  101fcf:	66 89 0d 2e 44 11 00 	mov    %cx,0x11442e
    lidt(&idt_pd);
  101fd6:	89 45 f8             	mov    %eax,-0x8(%ebp)
    asm volatile ("lidt (%0)" :: "r" (pd) : "memory");
  101fd9:	8b 45 f8             	mov    -0x8(%ebp),%eax
  101fdc:	0f 01 18             	lidtl  (%eax)
}
  101fdf:	83 c4 08             	add    $0x8,%esp
  101fe2:	5e                   	pop    %esi
  101fe3:	5d                   	pop    %ebp
  101fe4:	c3                   	ret    
  101fe5:	66 66 2e 0f 1f 84 00 	data16 nopw %cs:0x0(%eax,%eax,1)
  101fec:	00 00 00 00 

00101ff0 <trap_in_kernel>:
    return "(unknown trap)";
}

/* trap_in_kernel - test if trap happened in kernel */
bool
trap_in_kernel(struct trapframe *tf) {
  101ff0:	55                   	push   %ebp
  101ff1:	89 e5                	mov    %esp,%ebp
  101ff3:	50                   	push   %eax
  101ff4:	8b 45 08             	mov    0x8(%ebp),%eax
  101ff7:	89 45 fc             	mov    %eax,-0x4(%ebp)
    return (tf->tf_cs == (uint16_t)KERNEL_CS);
  101ffa:	8b 45 fc             	mov    -0x4(%ebp),%eax
  101ffd:	0f b7 40 3c          	movzwl 0x3c(%eax),%eax
  102001:	83 f8 08             	cmp    $0x8,%eax
  102004:	0f 94 c1             	sete   %cl
  102007:	80 e1 01             	and    $0x1,%cl
  10200a:	0f b6 c1             	movzbl %cl,%eax
  10200d:	83 c4 04             	add    $0x4,%esp
  102010:	5d                   	pop    %ebp
  102011:	c3                   	ret    
  102012:	66 66 66 66 66 2e 0f 	data16 data16 data16 data16 nopw %cs:0x0(%eax,%eax,1)
  102019:	1f 84 00 00 00 00 00 

00102020 <print_trapframe>:
    "TF", "IF", "DF", "OF", NULL, NULL, "NT", NULL,
    "RF", "VM", "AC", "VIF", "VIP", "ID", NULL, NULL,
};

void
print_trapframe(struct trapframe *tf) {
  102020:	55                   	push   %ebp
  102021:	89 e5                	mov    %esp,%ebp
  102023:	83 ec 58             	sub    $0x58,%esp
  102026:	8b 45 08             	mov    0x8(%ebp),%eax
  102029:	8d 0d 66 f3 10 00    	lea    0x10f366,%ecx
  10202f:	89 45 fc             	mov    %eax,-0x4(%ebp)
    cprintf("trapframe at %p\n", tf);
  102032:	8b 45 fc             	mov    -0x4(%ebp),%eax
  102035:	89 0c 24             	mov    %ecx,(%esp)
  102038:	89 44 24 04          	mov    %eax,0x4(%esp)
  10203c:	e8 ff e1 ff ff       	call   100240 <cprintf>
    print_regs(&tf->tf_regs);
  102041:	8b 4d fc             	mov    -0x4(%ebp),%ecx
  102044:	89 0c 24             	mov    %ecx,(%esp)
  102047:	89 45 f0             	mov    %eax,-0x10(%ebp)
  10204a:	e8 01 02 00 00       	call   102250 <print_regs>
  10204f:	8d 05 77 f3 10 00    	lea    0x10f377,%eax
    cprintf("  ds   0x----%04x\n", tf->tf_ds);
  102055:	8b 4d fc             	mov    -0x4(%ebp),%ecx
  102058:	0f b7 49 2c          	movzwl 0x2c(%ecx),%ecx
  10205c:	89 04 24             	mov    %eax,(%esp)
  10205f:	89 4c 24 04          	mov    %ecx,0x4(%esp)
  102063:	e8 d8 e1 ff ff       	call   100240 <cprintf>
  102068:	8d 0d 8a f3 10 00    	lea    0x10f38a,%ecx
    cprintf("  es   0x----%04x\n", tf->tf_es);
  10206e:	8b 55 fc             	mov    -0x4(%ebp),%edx
  102071:	0f b7 52 28          	movzwl 0x28(%edx),%edx
  102075:	89 0c 24             	mov    %ecx,(%esp)
  102078:	89 54 24 04          	mov    %edx,0x4(%esp)
  10207c:	89 45 ec             	mov    %eax,-0x14(%ebp)
  10207f:	e8 bc e1 ff ff       	call   100240 <cprintf>
  102084:	8d 0d 9d f3 10 00    	lea    0x10f39d,%ecx
    cprintf("  fs   0x----%04x\n", tf->tf_fs);
  10208a:	8b 55 fc             	mov    -0x4(%ebp),%edx
  10208d:	0f b7 52 24          	movzwl 0x24(%edx),%edx
  102091:	89 0c 24             	mov    %ecx,(%esp)
  102094:	89 54 24 04          	mov    %edx,0x4(%esp)
  102098:	89 45 e8             	mov    %eax,-0x18(%ebp)
  10209b:	e8 a0 e1 ff ff       	call   100240 <cprintf>
  1020a0:	8d 0d b0 f3 10 00    	lea    0x10f3b0,%ecx
    cprintf("  gs   0x----%04x\n", tf->tf_gs);
  1020a6:	8b 55 fc             	mov    -0x4(%ebp),%edx
  1020a9:	0f b7 52 20          	movzwl 0x20(%edx),%edx
  1020ad:	89 0c 24             	mov    %ecx,(%esp)
  1020b0:	89 54 24 04          	mov    %edx,0x4(%esp)
  1020b4:	89 45 e4             	mov    %eax,-0x1c(%ebp)
  1020b7:	e8 84 e1 ff ff       	call   100240 <cprintf>
    cprintf("  trap 0x%08x %s\n", tf->tf_trapno, trapname(tf->tf_trapno));
  1020bc:	8b 4d fc             	mov    -0x4(%ebp),%ecx
  1020bf:	8b 49 30             	mov    0x30(%ecx),%ecx
  1020c2:	8b 55 fc             	mov    -0x4(%ebp),%edx
  1020c5:	8b 52 30             	mov    0x30(%edx),%edx
  1020c8:	89 14 24             	mov    %edx,(%esp)
  1020cb:	89 45 e0             	mov    %eax,-0x20(%ebp)
  1020ce:	89 4d dc             	mov    %ecx,-0x24(%ebp)
  1020d1:	e8 6a 02 00 00       	call   102340 <trapname>
  1020d6:	8d 0d c3 f3 10 00    	lea    0x10f3c3,%ecx
  1020dc:	89 0c 24             	mov    %ecx,(%esp)
  1020df:	8b 4d dc             	mov    -0x24(%ebp),%ecx
  1020e2:	89 4c 24 04          	mov    %ecx,0x4(%esp)
  1020e6:	89 44 24 08          	mov    %eax,0x8(%esp)
  1020ea:	e8 51 e1 ff ff       	call   100240 <cprintf>
  1020ef:	8d 0d d5 f3 10 00    	lea    0x10f3d5,%ecx
    cprintf("  err  0x%08x\n", tf->tf_err);
  1020f5:	8b 55 fc             	mov    -0x4(%ebp),%edx
  1020f8:	8b 52 34             	mov    0x34(%edx),%edx
  1020fb:	89 0c 24             	mov    %ecx,(%esp)
  1020fe:	89 54 24 04          	mov    %edx,0x4(%esp)
  102102:	89 45 d8             	mov    %eax,-0x28(%ebp)
  102105:	e8 36 e1 ff ff       	call   100240 <cprintf>
  10210a:	8d 0d e4 f3 10 00    	lea    0x10f3e4,%ecx
    cprintf("  eip  0x%08x\n", tf->tf_eip);
  102110:	8b 55 fc             	mov    -0x4(%ebp),%edx
  102113:	8b 52 38             	mov    0x38(%edx),%edx
  102116:	89 0c 24             	mov    %ecx,(%esp)
  102119:	89 54 24 04          	mov    %edx,0x4(%esp)
  10211d:	89 45 d4             	mov    %eax,-0x2c(%ebp)
  102120:	e8 1b e1 ff ff       	call   100240 <cprintf>
  102125:	8d 0d f3 f3 10 00    	lea    0x10f3f3,%ecx
    cprintf("  cs   0x----%04x\n", tf->tf_cs);
  10212b:	8b 55 fc             	mov    -0x4(%ebp),%edx
  10212e:	0f b7 52 3c          	movzwl 0x3c(%edx),%edx
  102132:	89 0c 24             	mov    %ecx,(%esp)
  102135:	89 54 24 04          	mov    %edx,0x4(%esp)
  102139:	89 45 d0             	mov    %eax,-0x30(%ebp)
  10213c:	e8 ff e0 ff ff       	call   100240 <cprintf>
  102141:	8d 0d 06 f4 10 00    	lea    0x10f406,%ecx
    cprintf("  flag 0x%08x ", tf->tf_eflags);
  102147:	8b 55 fc             	mov    -0x4(%ebp),%edx
  10214a:	8b 52 40             	mov    0x40(%edx),%edx
  10214d:	89 0c 24             	mov    %ecx,(%esp)
  102150:	89 54 24 04          	mov    %edx,0x4(%esp)
  102154:	89 45 cc             	mov    %eax,-0x34(%ebp)
  102157:	e8 e4 e0 ff ff       	call   100240 <cprintf>

    int i, j;
    for (i = 0, j = 1; i < sizeof(IA32flags) / sizeof(IA32flags[0]); i ++, j <<= 1) {
  10215c:	c7 45 f8 00 00 00 00 	movl   $0x0,-0x8(%ebp)
  102163:	c7 45 f4 01 00 00 00 	movl   $0x1,-0xc(%ebp)
  10216a:	89 45 c8             	mov    %eax,-0x38(%ebp)
  10216d:	83 7d f8 18          	cmpl   $0x18,-0x8(%ebp)
  102171:	0f 83 5e 00 00 00    	jae    1021d5 <print_trapframe+0x1b5>
        if ((tf->tf_eflags & j) && IA32flags[i] != NULL) {
  102177:	8b 45 fc             	mov    -0x4(%ebp),%eax
  10217a:	8b 40 40             	mov    0x40(%eax),%eax
  10217d:	23 45 f4             	and    -0xc(%ebp),%eax
  102180:	83 f8 00             	cmp    $0x0,%eax
  102183:	0f 84 30 00 00 00    	je     1021b9 <print_trapframe+0x199>
  102189:	8b 45 f8             	mov    -0x8(%ebp),%eax
  10218c:	83 3c 85 60 35 11 00 	cmpl   $0x0,0x113560(,%eax,4)
  102193:	00 
  102194:	0f 84 1f 00 00 00    	je     1021b9 <print_trapframe+0x199>
  10219a:	8d 05 15 f4 10 00    	lea    0x10f415,%eax
            cprintf("%s,", IA32flags[i]);
  1021a0:	8b 4d f8             	mov    -0x8(%ebp),%ecx
  1021a3:	8b 0c 8d 60 35 11 00 	mov    0x113560(,%ecx,4),%ecx
  1021aa:	89 04 24             	mov    %eax,(%esp)
  1021ad:	89 4c 24 04          	mov    %ecx,0x4(%esp)
  1021b1:	e8 8a e0 ff ff       	call   100240 <cprintf>
  1021b6:	89 45 c4             	mov    %eax,-0x3c(%ebp)
        }
    }
  1021b9:	e9 00 00 00 00       	jmp    1021be <print_trapframe+0x19e>
    for (i = 0, j = 1; i < sizeof(IA32flags) / sizeof(IA32flags[0]); i ++, j <<= 1) {
  1021be:	8b 45 f8             	mov    -0x8(%ebp),%eax
  1021c1:	83 c0 01             	add    $0x1,%eax
  1021c4:	89 45 f8             	mov    %eax,-0x8(%ebp)
  1021c7:	8b 45 f4             	mov    -0xc(%ebp),%eax
  1021ca:	c1 e0 01             	shl    $0x1,%eax
  1021cd:	89 45 f4             	mov    %eax,-0xc(%ebp)
  1021d0:	e9 98 ff ff ff       	jmp    10216d <print_trapframe+0x14d>
  1021d5:	8d 05 19 f4 10 00    	lea    0x10f419,%eax
    cprintf("IOPL=%d\n", (tf->tf_eflags & FL_IOPL_MASK) >> 12);
  1021db:	8b 4d fc             	mov    -0x4(%ebp),%ecx
  1021de:	8b 49 40             	mov    0x40(%ecx),%ecx
  1021e1:	81 e1 00 30 00 00    	and    $0x3000,%ecx
  1021e7:	c1 e9 0c             	shr    $0xc,%ecx
  1021ea:	89 04 24             	mov    %eax,(%esp)
  1021ed:	89 4c 24 04          	mov    %ecx,0x4(%esp)
  1021f1:	e8 4a e0 ff ff       	call   100240 <cprintf>

    if (!trap_in_kernel(tf)) {
  1021f6:	8b 4d fc             	mov    -0x4(%ebp),%ecx
  1021f9:	89 0c 24             	mov    %ecx,(%esp)
  1021fc:	89 45 c0             	mov    %eax,-0x40(%ebp)
  1021ff:	e8 ec fd ff ff       	call   101ff0 <trap_in_kernel>
  102204:	83 f8 00             	cmp    $0x0,%eax
  102207:	0f 85 37 00 00 00    	jne    102244 <print_trapframe+0x224>
  10220d:	8d 05 22 f4 10 00    	lea    0x10f422,%eax
        cprintf("  esp  0x%08x\n", tf->tf_esp);
  102213:	8b 4d fc             	mov    -0x4(%ebp),%ecx
  102216:	8b 49 44             	mov    0x44(%ecx),%ecx
  102219:	89 04 24             	mov    %eax,(%esp)
  10221c:	89 4c 24 04          	mov    %ecx,0x4(%esp)
  102220:	e8 1b e0 ff ff       	call   100240 <cprintf>
  102225:	8d 0d 31 f4 10 00    	lea    0x10f431,%ecx
        cprintf("  ss   0x----%04x\n", tf->tf_ss);
  10222b:	8b 55 fc             	mov    -0x4(%ebp),%edx
  10222e:	0f b7 52 48          	movzwl 0x48(%edx),%edx
  102232:	89 0c 24             	mov    %ecx,(%esp)
  102235:	89 54 24 04          	mov    %edx,0x4(%esp)
  102239:	89 45 bc             	mov    %eax,-0x44(%ebp)
  10223c:	e8 ff df ff ff       	call   100240 <cprintf>
  102241:	89 45 b8             	mov    %eax,-0x48(%ebp)
    }
}
  102244:	83 c4 58             	add    $0x58,%esp
  102247:	5d                   	pop    %ebp
  102248:	c3                   	ret    
  102249:	0f 1f 80 00 00 00 00 	nopl   0x0(%eax)

00102250 <print_regs>:

void
print_regs(struct pushregs *regs) {
  102250:	55                   	push   %ebp
  102251:	89 e5                	mov    %esp,%ebp
  102253:	83 ec 38             	sub    $0x38,%esp
  102256:	8b 45 08             	mov    0x8(%ebp),%eax
  102259:	8d 0d 44 f4 10 00    	lea    0x10f444,%ecx
  10225f:	89 45 fc             	mov    %eax,-0x4(%ebp)
    cprintf("  edi  0x%08x\n", regs->reg_edi);
  102262:	8b 45 fc             	mov    -0x4(%ebp),%eax
  102265:	8b 00                	mov    (%eax),%eax
  102267:	89 0c 24             	mov    %ecx,(%esp)
  10226a:	89 44 24 04          	mov    %eax,0x4(%esp)
  10226e:	e8 cd df ff ff       	call   100240 <cprintf>
  102273:	8d 0d 53 f4 10 00    	lea    0x10f453,%ecx
    cprintf("  esi  0x%08x\n", regs->reg_esi);
  102279:	8b 55 fc             	mov    -0x4(%ebp),%edx
  10227c:	8b 52 04             	mov    0x4(%edx),%edx
  10227f:	89 0c 24             	mov    %ecx,(%esp)
  102282:	89 54 24 04          	mov    %edx,0x4(%esp)
  102286:	89 45 f8             	mov    %eax,-0x8(%ebp)
  102289:	e8 b2 df ff ff       	call   100240 <cprintf>
  10228e:	8d 0d 62 f4 10 00    	lea    0x10f462,%ecx
    cprintf("  ebp  0x%08x\n", regs->reg_ebp);
  102294:	8b 55 fc             	mov    -0x4(%ebp),%edx
  102297:	8b 52 08             	mov    0x8(%edx),%edx
  10229a:	89 0c 24             	mov    %ecx,(%esp)
  10229d:	89 54 24 04          	mov    %edx,0x4(%esp)
  1022a1:	89 45 f4             	mov    %eax,-0xc(%ebp)
  1022a4:	e8 97 df ff ff       	call   100240 <cprintf>
  1022a9:	8d 0d 71 f4 10 00    	lea    0x10f471,%ecx
    cprintf("  oesp 0x%08x\n", regs->reg_oesp);
  1022af:	8b 55 fc             	mov    -0x4(%ebp),%edx
  1022b2:	8b 52 0c             	mov    0xc(%edx),%edx
  1022b5:	89 0c 24             	mov    %ecx,(%esp)
  1022b8:	89 54 24 04          	mov    %edx,0x4(%esp)
  1022bc:	89 45 f0             	mov    %eax,-0x10(%ebp)
  1022bf:	e8 7c df ff ff       	call   100240 <cprintf>
  1022c4:	8d 0d 80 f4 10 00    	lea    0x10f480,%ecx
    cprintf("  ebx  0x%08x\n", regs->reg_ebx);
  1022ca:	8b 55 fc             	mov    -0x4(%ebp),%edx
  1022cd:	8b 52 10             	mov    0x10(%edx),%edx
  1022d0:	89 0c 24             	mov    %ecx,(%esp)
  1022d3:	89 54 24 04          	mov    %edx,0x4(%esp)
  1022d7:	89 45 ec             	mov    %eax,-0x14(%ebp)
  1022da:	e8 61 df ff ff       	call   100240 <cprintf>
  1022df:	8d 0d 8f f4 10 00    	lea    0x10f48f,%ecx
    cprintf("  edx  0x%08x\n", regs->reg_edx);
  1022e5:	8b 55 fc             	mov    -0x4(%ebp),%edx
  1022e8:	8b 52 14             	mov    0x14(%edx),%edx
  1022eb:	89 0c 24             	mov    %ecx,(%esp)
  1022ee:	89 54 24 04          	mov    %edx,0x4(%esp)
  1022f2:	89 45 e8             	mov    %eax,-0x18(%ebp)
  1022f5:	e8 46 df ff ff       	call   100240 <cprintf>
  1022fa:	8d 0d 9e f4 10 00    	lea    0x10f49e,%ecx
    cprintf("  ecx  0x%08x\n", regs->reg_ecx);
  102300:	8b 55 fc             	mov    -0x4(%ebp),%edx
  102303:	8b 52 18             	mov    0x18(%edx),%edx
  102306:	89 0c 24             	mov    %ecx,(%esp)
  102309:	89 54 24 04          	mov    %edx,0x4(%esp)
  10230d:	89 45 e4             	mov    %eax,-0x1c(%ebp)
  102310:	e8 2b df ff ff       	call   100240 <cprintf>
  102315:	8d 0d ad f4 10 00    	lea    0x10f4ad,%ecx
    cprintf("  eax  0x%08x\n", regs->reg_eax);
  10231b:	8b 55 fc             	mov    -0x4(%ebp),%edx
  10231e:	8b 52 1c             	mov    0x1c(%edx),%edx
  102321:	89 0c 24             	mov    %ecx,(%esp)
  102324:	89 54 24 04          	mov    %edx,0x4(%esp)
  102328:	89 45 e0             	mov    %eax,-0x20(%ebp)
  10232b:	e8 10 df ff ff       	call   100240 <cprintf>
}
  102330:	89 45 dc             	mov    %eax,-0x24(%ebp)
  102333:	83 c4 38             	add    $0x38,%esp
  102336:	5d                   	pop    %ebp
  102337:	c3                   	ret    
  102338:	0f 1f 84 00 00 00 00 	nopl   0x0(%eax,%eax,1)
  10233f:	00 

00102340 <trapname>:
trapname(int trapno) {
  102340:	55                   	push   %ebp
  102341:	89 e5                	mov    %esp,%ebp
  102343:	83 ec 08             	sub    $0x8,%esp
  102346:	8b 45 08             	mov    0x8(%ebp),%eax
  102349:	89 45 f8             	mov    %eax,-0x8(%ebp)
    if (trapno < sizeof(excnames)/sizeof(const char * const)) {
  10234c:	83 7d f8 14          	cmpl   $0x14,-0x8(%ebp)
  102350:	0f 83 12 00 00 00    	jae    102368 <trapname+0x28>
        return excnames[trapno];
  102356:	8b 45 f8             	mov    -0x8(%ebp),%eax
  102359:	8b 04 85 a8 f6 10 00 	mov    0x10f6a8(,%eax,4),%eax
  102360:	89 45 fc             	mov    %eax,-0x4(%ebp)
  102363:	e9 2b 00 00 00       	jmp    102393 <trapname+0x53>
    if (trapno >= IRQ_OFFSET && trapno < IRQ_OFFSET + 16) {
  102368:	83 7d f8 20          	cmpl   $0x20,-0x8(%ebp)
  10236c:	0f 8c 18 00 00 00    	jl     10238a <trapname+0x4a>
  102372:	83 7d f8 30          	cmpl   $0x30,-0x8(%ebp)
  102376:	0f 8d 0e 00 00 00    	jge    10238a <trapname+0x4a>
  10237c:	8d 05 0e f6 10 00    	lea    0x10f60e,%eax
        return "Hardware Interrupt";
  102382:	89 45 fc             	mov    %eax,-0x4(%ebp)
  102385:	e9 09 00 00 00       	jmp    102393 <trapname+0x53>
  10238a:	8d 05 a6 f5 10 00    	lea    0x10f5a6,%eax
    return "(unknown trap)";
  102390:	89 45 fc             	mov    %eax,-0x4(%ebp)
}
  102393:	8b 45 fc             	mov    -0x4(%ebp),%eax
  102396:	83 c4 08             	add    $0x8,%esp
  102399:	5d                   	pop    %ebp
  10239a:	c3                   	ret    
  10239b:	0f 1f 44 00 00       	nopl   0x0(%eax,%eax,1)

001023a0 <trap>:
 * trap - handles or dispatches an exception/interrupt. if and when trap() returns,
 * the code in kern/trap/trapentry.S restores the old CPU state saved in the
 * trapframe and then uses the iret instruction to return from the exception.
 * */
void
trap(struct trapframe *tf) {
  1023a0:	55                   	push   %ebp
  1023a1:	89 e5                	mov    %esp,%ebp
  1023a3:	83 ec 08             	sub    $0x8,%esp
  1023a6:	8b 45 08             	mov    0x8(%ebp),%eax
  1023a9:	89 45 fc             	mov    %eax,-0x4(%ebp)
    // dispatch based on what type of trap occurred
    trap_dispatch(tf);
  1023ac:	8b 45 fc             	mov    -0x4(%ebp),%eax
  1023af:	89 04 24             	mov    %eax,(%esp)
  1023b2:	e8 09 00 00 00       	call   1023c0 <trap_dispatch>
}
  1023b7:	83 c4 08             	add    $0x8,%esp
  1023ba:	5d                   	pop    %ebp
  1023bb:	c3                   	ret    
  1023bc:	0f 1f 40 00          	nopl   0x0(%eax)

001023c0 <trap_dispatch>:
trap_dispatch(struct trapframe *tf) {
  1023c0:	55                   	push   %ebp
  1023c1:	89 e5                	mov    %esp,%ebp
  1023c3:	56                   	push   %esi
  1023c4:	83 ec 44             	sub    $0x44,%esp
  1023c7:	8b 45 08             	mov    0x8(%ebp),%eax
  1023ca:	89 45 f8             	mov    %eax,-0x8(%ebp)
    switch (tf->tf_trapno) {
  1023cd:	8b 40 30             	mov    0x30(%eax),%eax
  1023d0:	89 c1                	mov    %eax,%ecx
  1023d2:	83 e9 20             	sub    $0x20,%ecx
  1023d5:	89 45 f0             	mov    %eax,-0x10(%ebp)
  1023d8:	89 4d ec             	mov    %ecx,-0x14(%ebp)
  1023db:	0f 84 5b 00 00 00    	je     10243c <trap_dispatch+0x7c>
  1023e1:	e9 00 00 00 00       	jmp    1023e6 <trap_dispatch+0x26>
  1023e6:	8b 45 f0             	mov    -0x10(%ebp),%eax
  1023e9:	83 e8 21             	sub    $0x21,%eax
  1023ec:	89 45 e8             	mov    %eax,-0x18(%ebp)
  1023ef:	0f 84 a8 00 00 00    	je     10249d <trap_dispatch+0xdd>
  1023f5:	e9 00 00 00 00       	jmp    1023fa <trap_dispatch+0x3a>
  1023fa:	8b 45 f0             	mov    -0x10(%ebp),%eax
  1023fd:	83 e8 24             	sub    $0x24,%eax
  102400:	89 45 e4             	mov    %eax,-0x1c(%ebp)
  102403:	0f 84 64 00 00 00    	je     10246d <trap_dispatch+0xad>
  102409:	e9 00 00 00 00       	jmp    10240e <trap_dispatch+0x4e>
  10240e:	8b 45 f0             	mov    -0x10(%ebp),%eax
  102411:	83 c0 d2             	add    $0xffffffd2,%eax
  102414:	83 e8 02             	sub    $0x2,%eax
  102417:	89 45 e0             	mov    %eax,-0x20(%ebp)
  10241a:	0f 82 b2 00 00 00    	jb     1024d2 <trap_dispatch+0x112>
  102420:	e9 00 00 00 00       	jmp    102425 <trap_dispatch+0x65>
  102425:	8b 45 f0             	mov    -0x10(%ebp),%eax
  102428:	83 c0 88             	add    $0xffffff88,%eax
  10242b:	83 e8 02             	sub    $0x2,%eax
  10242e:	89 45 dc             	mov    %eax,-0x24(%ebp)
  102431:	0f 82 96 00 00 00    	jb     1024cd <trap_dispatch+0x10d>
  102437:	e9 9b 00 00 00       	jmp    1024d7 <trap_dispatch+0x117>
        tick_count++;
  10243c:	a1 28 48 11 00       	mov    0x114828,%eax
  102441:	83 c0 01             	add    $0x1,%eax
  102444:	a3 28 48 11 00       	mov    %eax,0x114828
        if (tick_count == TICK_NUM) {
  102449:	83 3d 28 48 11 00 64 	cmpl   $0x64,0x114828
  102450:	0f 85 12 00 00 00    	jne    102468 <trap_dispatch+0xa8>
            tick_count -= TICK_NUM;
  102456:	a1 28 48 11 00       	mov    0x114828,%eax
  10245b:	83 e8 64             	sub    $0x64,%eax
  10245e:	a3 28 48 11 00       	mov    %eax,0x114828
            print_ticks();
  102463:	e8 c8 00 00 00       	call   102530 <print_ticks>
        break;
  102468:	e9 b5 00 00 00       	jmp    102522 <trap_dispatch+0x162>
        c = cons_getc();
  10246d:	e8 6e f3 ff ff       	call   1017e0 <cons_getc>
  102472:	8d 0d 50 f6 10 00    	lea    0x10f650,%ecx
  102478:	88 c2                	mov    %al,%dl
  10247a:	88 55 f7             	mov    %dl,-0x9(%ebp)
        cprintf("serial [%03d] %c\n", c, c);
  10247d:	0f be 45 f7          	movsbl -0x9(%ebp),%eax
  102481:	0f be 75 f7          	movsbl -0x9(%ebp),%esi
  102485:	89 0c 24             	mov    %ecx,(%esp)
  102488:	89 44 24 04          	mov    %eax,0x4(%esp)
  10248c:	89 74 24 08          	mov    %esi,0x8(%esp)
  102490:	e8 ab dd ff ff       	call   100240 <cprintf>
        break;
  102495:	89 45 d8             	mov    %eax,-0x28(%ebp)
  102498:	e9 85 00 00 00       	jmp    102522 <trap_dispatch+0x162>
        c = cons_getc();
  10249d:	e8 3e f3 ff ff       	call   1017e0 <cons_getc>
  1024a2:	8d 0d 62 f6 10 00    	lea    0x10f662,%ecx
  1024a8:	88 c2                	mov    %al,%dl
  1024aa:	88 55 f7             	mov    %dl,-0x9(%ebp)
        cprintf("kbd [%03d] %c\n", c, c);
  1024ad:	0f be 45 f7          	movsbl -0x9(%ebp),%eax
  1024b1:	0f be 75 f7          	movsbl -0x9(%ebp),%esi
  1024b5:	89 0c 24             	mov    %ecx,(%esp)
  1024b8:	89 44 24 04          	mov    %eax,0x4(%esp)
  1024bc:	89 74 24 08          	mov    %esi,0x8(%esp)
  1024c0:	e8 7b dd ff ff       	call   100240 <cprintf>
        break;
  1024c5:	89 45 d4             	mov    %eax,-0x2c(%ebp)
  1024c8:	e9 55 00 00 00       	jmp    102522 <trap_dispatch+0x162>
        break;
  1024cd:	e9 50 00 00 00       	jmp    102522 <trap_dispatch+0x162>
        break;
  1024d2:	e9 4b 00 00 00       	jmp    102522 <trap_dispatch+0x162>
        if ((tf->tf_cs & 3) == 0) {
  1024d7:	8b 45 f8             	mov    -0x8(%ebp),%eax
  1024da:	0f b7 40 3c          	movzwl 0x3c(%eax),%eax
  1024de:	83 e0 03             	and    $0x3,%eax
  1024e1:	83 f8 00             	cmp    $0x0,%eax
  1024e4:	0f 85 33 00 00 00    	jne    10251d <trap_dispatch+0x15d>
            print_trapframe(tf);
  1024ea:	8b 45 f8             	mov    -0x8(%ebp),%eax
  1024ed:	89 04 24             	mov    %eax,(%esp)
  1024f0:	e8 2b fb ff ff       	call   102020 <print_trapframe>
  1024f5:	8d 05 71 f6 10 00    	lea    0x10f671,%eax
  1024fb:	b9 b8 00 00 00       	mov    $0xb8,%ecx
  102500:	8d 15 82 f6 10 00    	lea    0x10f682,%edx
            panic("unexpected trap in kernel.\n");
  102506:	89 04 24             	mov    %eax,(%esp)
  102509:	c7 44 24 04 b8 00 00 	movl   $0xb8,0x4(%esp)
  102510:	00 
  102511:	89 54 24 08          	mov    %edx,0x8(%esp)
  102515:	89 4d d0             	mov    %ecx,-0x30(%ebp)
  102518:	e8 33 df ff ff       	call   100450 <__panic>
    }
  10251d:	e9 00 00 00 00       	jmp    102522 <trap_dispatch+0x162>
}
  102522:	83 c4 44             	add    $0x44,%esp
  102525:	5e                   	pop    %esi
  102526:	5d                   	pop    %ebp
  102527:	c3                   	ret    
  102528:	0f 1f 84 00 00 00 00 	nopl   0x0(%eax,%eax,1)
  10252f:	00 

00102530 <print_ticks>:
static void print_ticks() {
  102530:	55                   	push   %ebp
  102531:	89 e5                	mov    %esp,%ebp
  102533:	83 ec 18             	sub    $0x18,%esp
  102536:	8d 05 9e f6 10 00    	lea    0x10f69e,%eax
  10253c:	b9 64 00 00 00       	mov    $0x64,%ecx
    cprintf("%d ticks\n",TICK_NUM);
  102541:	89 04 24             	mov    %eax,(%esp)
  102544:	c7 44 24 04 64 00 00 	movl   $0x64,0x4(%esp)
  10254b:	00 
  10254c:	89 4d fc             	mov    %ecx,-0x4(%ebp)
  10254f:	e8 ec dc ff ff       	call   100240 <cprintf>
}
  102554:	89 45 f8             	mov    %eax,-0x8(%ebp)
  102557:	83 c4 18             	add    $0x18,%esp
  10255a:	5d                   	pop    %ebp
  10255b:	c3                   	ret    

0010255c <vector0>:
.text
.globl __alltraps
.globl vector0
vector0:
  pushl $0
  pushl $0
  10255c:	6a 00                	push   $0x0
  jmp __alltraps
  10255e:	6a 00                	push   $0x0
.globl vector1
  102560:	e9 67 0a 00 00       	jmp    102fcc <__alltraps>

00102565 <vector1>:
vector1:
  pushl $0
  pushl $1
  102565:	6a 00                	push   $0x0
  jmp __alltraps
  102567:	6a 01                	push   $0x1
.globl vector2
  102569:	e9 5e 0a 00 00       	jmp    102fcc <__alltraps>

0010256e <vector2>:
vector2:
  pushl $0
  pushl $2
  10256e:	6a 00                	push   $0x0
  jmp __alltraps
  102570:	6a 02                	push   $0x2
.globl vector3
  102572:	e9 55 0a 00 00       	jmp    102fcc <__alltraps>

00102577 <vector3>:
vector3:
  pushl $0
  pushl $3
  102577:	6a 00                	push   $0x0
  jmp __alltraps
  102579:	6a 03                	push   $0x3
.globl vector4
  10257b:	e9 4c 0a 00 00       	jmp    102fcc <__alltraps>

00102580 <vector4>:
vector4:
  pushl $0
  pushl $4
  102580:	6a 00                	push   $0x0
  jmp __alltraps
  102582:	6a 04                	push   $0x4
.globl vector5
  102584:	e9 43 0a 00 00       	jmp    102fcc <__alltraps>

00102589 <vector5>:
vector5:
  pushl $0
  pushl $5
  102589:	6a 00                	push   $0x0
  jmp __alltraps
  10258b:	6a 05                	push   $0x5
.globl vector6
  10258d:	e9 3a 0a 00 00       	jmp    102fcc <__alltraps>

00102592 <vector6>:
vector6:
  pushl $0
  pushl $6
  102592:	6a 00                	push   $0x0
  jmp __alltraps
  102594:	6a 06                	push   $0x6
.globl vector7
  102596:	e9 31 0a 00 00       	jmp    102fcc <__alltraps>

0010259b <vector7>:
vector7:
  pushl $0
  pushl $7
  10259b:	6a 00                	push   $0x0
  jmp __alltraps
  10259d:	6a 07                	push   $0x7
.globl vector8
  10259f:	e9 28 0a 00 00       	jmp    102fcc <__alltraps>

001025a4 <vector8>:
vector8:
  pushl $8
  jmp __alltraps
  1025a4:	6a 08                	push   $0x8
.globl vector9
  1025a6:	e9 21 0a 00 00       	jmp    102fcc <__alltraps>

001025ab <vector9>:
vector9:
  pushl $9
  jmp __alltraps
  1025ab:	6a 09                	push   $0x9
.globl vector10
  1025ad:	e9 1a 0a 00 00       	jmp    102fcc <__alltraps>

001025b2 <vector10>:
vector10:
  pushl $10
  jmp __alltraps
  1025b2:	6a 0a                	push   $0xa
.globl vector11
  1025b4:	e9 13 0a 00 00       	jmp    102fcc <__alltraps>

001025b9 <vector11>:
vector11:
  pushl $11
  jmp __alltraps
  1025b9:	6a 0b                	push   $0xb
.globl vector12
  1025bb:	e9 0c 0a 00 00       	jmp    102fcc <__alltraps>

001025c0 <vector12>:
vector12:
  pushl $12
  jmp __alltraps
  1025c0:	6a 0c                	push   $0xc
.globl vector13
  1025c2:	e9 05 0a 00 00       	jmp    102fcc <__alltraps>

001025c7 <vector13>:
vector13:
  pushl $13
  jmp __alltraps
  1025c7:	6a 0d                	push   $0xd
.globl vector14
  1025c9:	e9 fe 09 00 00       	jmp    102fcc <__alltraps>

001025ce <vector14>:
vector14:
  pushl $14
  jmp __alltraps
  1025ce:	6a 0e                	push   $0xe
.globl vector15
  1025d0:	e9 f7 09 00 00       	jmp    102fcc <__alltraps>

001025d5 <vector15>:
vector15:
  pushl $0
  pushl $15
  1025d5:	6a 00                	push   $0x0
  jmp __alltraps
  1025d7:	6a 0f                	push   $0xf
.globl vector16
  1025d9:	e9 ee 09 00 00       	jmp    102fcc <__alltraps>

001025de <vector16>:
vector16:
  pushl $0
  pushl $16
  1025de:	6a 00                	push   $0x0
  jmp __alltraps
  1025e0:	6a 10                	push   $0x10
.globl vector17
  1025e2:	e9 e5 09 00 00       	jmp    102fcc <__alltraps>

001025e7 <vector17>:
vector17:
  pushl $17
  jmp __alltraps
  1025e7:	6a 11                	push   $0x11
.globl vector18
  1025e9:	e9 de 09 00 00       	jmp    102fcc <__alltraps>

001025ee <vector18>:
vector18:
  pushl $0
  pushl $18
  1025ee:	6a 00                	push   $0x0
  jmp __alltraps
  1025f0:	6a 12                	push   $0x12
.globl vector19
  1025f2:	e9 d5 09 00 00       	jmp    102fcc <__alltraps>

001025f7 <vector19>:
vector19:
  pushl $0
  pushl $19
  1025f7:	6a 00                	push   $0x0
  jmp __alltraps
  1025f9:	6a 13                	push   $0x13
.globl vector20
  1025fb:	e9 cc 09 00 00       	jmp    102fcc <__alltraps>

00102600 <vector20>:
vector20:
  pushl $0
  pushl $20
  102600:	6a 00                	push   $0x0
  jmp __alltraps
  102602:	6a 14                	push   $0x14
.globl vector21
  102604:	e9 c3 09 00 00       	jmp    102fcc <__alltraps>

00102609 <vector21>:
vector21:
  pushl $0
  pushl $21
  102609:	6a 00                	push   $0x0
  jmp __alltraps
  10260b:	6a 15                	push   $0x15
.globl vector22
  10260d:	e9 ba 09 00 00       	jmp    102fcc <__alltraps>

00102612 <vector22>:
vector22:
  pushl $0
  pushl $22
  102612:	6a 00                	push   $0x0
  jmp __alltraps
  102614:	6a 16                	push   $0x16
.globl vector23
  102616:	e9 b1 09 00 00       	jmp    102fcc <__alltraps>

0010261b <vector23>:
vector23:
  pushl $0
  pushl $23
  10261b:	6a 00                	push   $0x0
  jmp __alltraps
  10261d:	6a 17                	push   $0x17
.globl vector24
  10261f:	e9 a8 09 00 00       	jmp    102fcc <__alltraps>

00102624 <vector24>:
vector24:
  pushl $0
  pushl $24
  102624:	6a 00                	push   $0x0
  jmp __alltraps
  102626:	6a 18                	push   $0x18
.globl vector25
  102628:	e9 9f 09 00 00       	jmp    102fcc <__alltraps>

0010262d <vector25>:
vector25:
  pushl $0
  pushl $25
  10262d:	6a 00                	push   $0x0
  jmp __alltraps
  10262f:	6a 19                	push   $0x19
.globl vector26
  102631:	e9 96 09 00 00       	jmp    102fcc <__alltraps>

00102636 <vector26>:
vector26:
  pushl $0
  pushl $26
  102636:	6a 00                	push   $0x0
  jmp __alltraps
  102638:	6a 1a                	push   $0x1a
.globl vector27
  10263a:	e9 8d 09 00 00       	jmp    102fcc <__alltraps>

0010263f <vector27>:
vector27:
  pushl $0
  pushl $27
  10263f:	6a 00                	push   $0x0
  jmp __alltraps
  102641:	6a 1b                	push   $0x1b
.globl vector28
  102643:	e9 84 09 00 00       	jmp    102fcc <__alltraps>

00102648 <vector28>:
vector28:
  pushl $0
  pushl $28
  102648:	6a 00                	push   $0x0
  jmp __alltraps
  10264a:	6a 1c                	push   $0x1c
.globl vector29
  10264c:	e9 7b 09 00 00       	jmp    102fcc <__alltraps>

00102651 <vector29>:
vector29:
  pushl $0
  pushl $29
  102651:	6a 00                	push   $0x0
  jmp __alltraps
  102653:	6a 1d                	push   $0x1d
.globl vector30
  102655:	e9 72 09 00 00       	jmp    102fcc <__alltraps>

0010265a <vector30>:
vector30:
  pushl $0
  pushl $30
  10265a:	6a 00                	push   $0x0
  jmp __alltraps
  10265c:	6a 1e                	push   $0x1e
.globl vector31
  10265e:	e9 69 09 00 00       	jmp    102fcc <__alltraps>

00102663 <vector31>:
vector31:
  pushl $0
  pushl $31
  102663:	6a 00                	push   $0x0
  jmp __alltraps
  102665:	6a 1f                	push   $0x1f
.globl vector32
  102667:	e9 60 09 00 00       	jmp    102fcc <__alltraps>

0010266c <vector32>:
vector32:
  pushl $0
  pushl $32
  10266c:	6a 00                	push   $0x0
  jmp __alltraps
  10266e:	6a 20                	push   $0x20
.globl vector33
  102670:	e9 57 09 00 00       	jmp    102fcc <__alltraps>

00102675 <vector33>:
vector33:
  pushl $0
  pushl $33
  102675:	6a 00                	push   $0x0
  jmp __alltraps
  102677:	6a 21                	push   $0x21
.globl vector34
  102679:	e9 4e 09 00 00       	jmp    102fcc <__alltraps>

0010267e <vector34>:
vector34:
  pushl $0
  pushl $34
  10267e:	6a 00                	push   $0x0
  jmp __alltraps
  102680:	6a 22                	push   $0x22
.globl vector35
  102682:	e9 45 09 00 00       	jmp    102fcc <__alltraps>

00102687 <vector35>:
vector35:
  pushl $0
  pushl $35
  102687:	6a 00                	push   $0x0
  jmp __alltraps
  102689:	6a 23                	push   $0x23
.globl vector36
  10268b:	e9 3c 09 00 00       	jmp    102fcc <__alltraps>

00102690 <vector36>:
vector36:
  pushl $0
  pushl $36
  102690:	6a 00                	push   $0x0
  jmp __alltraps
  102692:	6a 24                	push   $0x24
.globl vector37
  102694:	e9 33 09 00 00       	jmp    102fcc <__alltraps>

00102699 <vector37>:
vector37:
  pushl $0
  pushl $37
  102699:	6a 00                	push   $0x0
  jmp __alltraps
  10269b:	6a 25                	push   $0x25
.globl vector38
  10269d:	e9 2a 09 00 00       	jmp    102fcc <__alltraps>

001026a2 <vector38>:
vector38:
  pushl $0
  pushl $38
  1026a2:	6a 00                	push   $0x0
  jmp __alltraps
  1026a4:	6a 26                	push   $0x26
.globl vector39
  1026a6:	e9 21 09 00 00       	jmp    102fcc <__alltraps>

001026ab <vector39>:
vector39:
  pushl $0
  pushl $39
  1026ab:	6a 00                	push   $0x0
  jmp __alltraps
  1026ad:	6a 27                	push   $0x27
.globl vector40
  1026af:	e9 18 09 00 00       	jmp    102fcc <__alltraps>

001026b4 <vector40>:
vector40:
  pushl $0
  pushl $40
  1026b4:	6a 00                	push   $0x0
  jmp __alltraps
  1026b6:	6a 28                	push   $0x28
.globl vector41
  1026b8:	e9 0f 09 00 00       	jmp    102fcc <__alltraps>

001026bd <vector41>:
vector41:
  pushl $0
  pushl $41
  1026bd:	6a 00                	push   $0x0
  jmp __alltraps
  1026bf:	6a 29                	push   $0x29
.globl vector42
  1026c1:	e9 06 09 00 00       	jmp    102fcc <__alltraps>

001026c6 <vector42>:
vector42:
  pushl $0
  pushl $42
  1026c6:	6a 00                	push   $0x0
  jmp __alltraps
  1026c8:	6a 2a                	push   $0x2a
.globl vector43
  1026ca:	e9 fd 08 00 00       	jmp    102fcc <__alltraps>

001026cf <vector43>:
vector43:
  pushl $0
  pushl $43
  1026cf:	6a 00                	push   $0x0
  jmp __alltraps
  1026d1:	6a 2b                	push   $0x2b
.globl vector44
  1026d3:	e9 f4 08 00 00       	jmp    102fcc <__alltraps>

001026d8 <vector44>:
vector44:
  pushl $0
  pushl $44
  1026d8:	6a 00                	push   $0x0
  jmp __alltraps
  1026da:	6a 2c                	push   $0x2c
.globl vector45
  1026dc:	e9 eb 08 00 00       	jmp    102fcc <__alltraps>

001026e1 <vector45>:
vector45:
  pushl $0
  pushl $45
  1026e1:	6a 00                	push   $0x0
  jmp __alltraps
  1026e3:	6a 2d                	push   $0x2d
.globl vector46
  1026e5:	e9 e2 08 00 00       	jmp    102fcc <__alltraps>

001026ea <vector46>:
vector46:
  pushl $0
  pushl $46
  1026ea:	6a 00                	push   $0x0
  jmp __alltraps
  1026ec:	6a 2e                	push   $0x2e
.globl vector47
  1026ee:	e9 d9 08 00 00       	jmp    102fcc <__alltraps>

001026f3 <vector47>:
vector47:
  pushl $0
  pushl $47
  1026f3:	6a 00                	push   $0x0
  jmp __alltraps
  1026f5:	6a 2f                	push   $0x2f
.globl vector48
  1026f7:	e9 d0 08 00 00       	jmp    102fcc <__alltraps>

001026fc <vector48>:
vector48:
  pushl $0
  pushl $48
  1026fc:	6a 00                	push   $0x0
  jmp __alltraps
  1026fe:	6a 30                	push   $0x30
.globl vector49
  102700:	e9 c7 08 00 00       	jmp    102fcc <__alltraps>

00102705 <vector49>:
vector49:
  pushl $0
  pushl $49
  102705:	6a 00                	push   $0x0
  jmp __alltraps
  102707:	6a 31                	push   $0x31
.globl vector50
  102709:	e9 be 08 00 00       	jmp    102fcc <__alltraps>

0010270e <vector50>:
vector50:
  pushl $0
  pushl $50
  10270e:	6a 00                	push   $0x0
  jmp __alltraps
  102710:	6a 32                	push   $0x32
.globl vector51
  102712:	e9 b5 08 00 00       	jmp    102fcc <__alltraps>

00102717 <vector51>:
vector51:
  pushl $0
  pushl $51
  102717:	6a 00                	push   $0x0
  jmp __alltraps
  102719:	6a 33                	push   $0x33
.globl vector52
  10271b:	e9 ac 08 00 00       	jmp    102fcc <__alltraps>

00102720 <vector52>:
vector52:
  pushl $0
  pushl $52
  102720:	6a 00                	push   $0x0
  jmp __alltraps
  102722:	6a 34                	push   $0x34
.globl vector53
  102724:	e9 a3 08 00 00       	jmp    102fcc <__alltraps>

00102729 <vector53>:
vector53:
  pushl $0
  pushl $53
  102729:	6a 00                	push   $0x0
  jmp __alltraps
  10272b:	6a 35                	push   $0x35
.globl vector54
  10272d:	e9 9a 08 00 00       	jmp    102fcc <__alltraps>

00102732 <vector54>:
vector54:
  pushl $0
  pushl $54
  102732:	6a 00                	push   $0x0
  jmp __alltraps
  102734:	6a 36                	push   $0x36
.globl vector55
  102736:	e9 91 08 00 00       	jmp    102fcc <__alltraps>

0010273b <vector55>:
vector55:
  pushl $0
  pushl $55
  10273b:	6a 00                	push   $0x0
  jmp __alltraps
  10273d:	6a 37                	push   $0x37
.globl vector56
  10273f:	e9 88 08 00 00       	jmp    102fcc <__alltraps>

00102744 <vector56>:
vector56:
  pushl $0
  pushl $56
  102744:	6a 00                	push   $0x0
  jmp __alltraps
  102746:	6a 38                	push   $0x38
.globl vector57
  102748:	e9 7f 08 00 00       	jmp    102fcc <__alltraps>

0010274d <vector57>:
vector57:
  pushl $0
  pushl $57
  10274d:	6a 00                	push   $0x0
  jmp __alltraps
  10274f:	6a 39                	push   $0x39
.globl vector58
  102751:	e9 76 08 00 00       	jmp    102fcc <__alltraps>

00102756 <vector58>:
vector58:
  pushl $0
  pushl $58
  102756:	6a 00                	push   $0x0
  jmp __alltraps
  102758:	6a 3a                	push   $0x3a
.globl vector59
  10275a:	e9 6d 08 00 00       	jmp    102fcc <__alltraps>

0010275f <vector59>:
vector59:
  pushl $0
  pushl $59
  10275f:	6a 00                	push   $0x0
  jmp __alltraps
  102761:	6a 3b                	push   $0x3b
.globl vector60
  102763:	e9 64 08 00 00       	jmp    102fcc <__alltraps>

00102768 <vector60>:
vector60:
  pushl $0
  pushl $60
  102768:	6a 00                	push   $0x0
  jmp __alltraps
  10276a:	6a 3c                	push   $0x3c
.globl vector61
  10276c:	e9 5b 08 00 00       	jmp    102fcc <__alltraps>

00102771 <vector61>:
vector61:
  pushl $0
  pushl $61
  102771:	6a 00                	push   $0x0
  jmp __alltraps
  102773:	6a 3d                	push   $0x3d
.globl vector62
  102775:	e9 52 08 00 00       	jmp    102fcc <__alltraps>

0010277a <vector62>:
vector62:
  pushl $0
  pushl $62
  10277a:	6a 00                	push   $0x0
  jmp __alltraps
  10277c:	6a 3e                	push   $0x3e
.globl vector63
  10277e:	e9 49 08 00 00       	jmp    102fcc <__alltraps>

00102783 <vector63>:
vector63:
  pushl $0
  pushl $63
  102783:	6a 00                	push   $0x0
  jmp __alltraps
  102785:	6a 3f                	push   $0x3f
.globl vector64
  102787:	e9 40 08 00 00       	jmp    102fcc <__alltraps>

0010278c <vector64>:
vector64:
  pushl $0
  pushl $64
  10278c:	6a 00                	push   $0x0
  jmp __alltraps
  10278e:	6a 40                	push   $0x40
.globl vector65
  102790:	e9 37 08 00 00       	jmp    102fcc <__alltraps>

00102795 <vector65>:
vector65:
  pushl $0
  pushl $65
  102795:	6a 00                	push   $0x0
  jmp __alltraps
  102797:	6a 41                	push   $0x41
.globl vector66
  102799:	e9 2e 08 00 00       	jmp    102fcc <__alltraps>

0010279e <vector66>:
vector66:
  pushl $0
  pushl $66
  10279e:	6a 00                	push   $0x0
  jmp __alltraps
  1027a0:	6a 42                	push   $0x42
.globl vector67
  1027a2:	e9 25 08 00 00       	jmp    102fcc <__alltraps>

001027a7 <vector67>:
vector67:
  pushl $0
  pushl $67
  1027a7:	6a 00                	push   $0x0
  jmp __alltraps
  1027a9:	6a 43                	push   $0x43
.globl vector68
  1027ab:	e9 1c 08 00 00       	jmp    102fcc <__alltraps>

001027b0 <vector68>:
vector68:
  pushl $0
  pushl $68
  1027b0:	6a 00                	push   $0x0
  jmp __alltraps
  1027b2:	6a 44                	push   $0x44
.globl vector69
  1027b4:	e9 13 08 00 00       	jmp    102fcc <__alltraps>

001027b9 <vector69>:
vector69:
  pushl $0
  pushl $69
  1027b9:	6a 00                	push   $0x0
  jmp __alltraps
  1027bb:	6a 45                	push   $0x45
.globl vector70
  1027bd:	e9 0a 08 00 00       	jmp    102fcc <__alltraps>

001027c2 <vector70>:
vector70:
  pushl $0
  pushl $70
  1027c2:	6a 00                	push   $0x0
  jmp __alltraps
  1027c4:	6a 46                	push   $0x46
.globl vector71
  1027c6:	e9 01 08 00 00       	jmp    102fcc <__alltraps>

001027cb <vector71>:
vector71:
  pushl $0
  pushl $71
  1027cb:	6a 00                	push   $0x0
  jmp __alltraps
  1027cd:	6a 47                	push   $0x47
.globl vector72
  1027cf:	e9 f8 07 00 00       	jmp    102fcc <__alltraps>

001027d4 <vector72>:
vector72:
  pushl $0
  pushl $72
  1027d4:	6a 00                	push   $0x0
  jmp __alltraps
  1027d6:	6a 48                	push   $0x48
.globl vector73
  1027d8:	e9 ef 07 00 00       	jmp    102fcc <__alltraps>

001027dd <vector73>:
vector73:
  pushl $0
  pushl $73
  1027dd:	6a 00                	push   $0x0
  jmp __alltraps
  1027df:	6a 49                	push   $0x49
.globl vector74
  1027e1:	e9 e6 07 00 00       	jmp    102fcc <__alltraps>

001027e6 <vector74>:
vector74:
  pushl $0
  pushl $74
  1027e6:	6a 00                	push   $0x0
  jmp __alltraps
  1027e8:	6a 4a                	push   $0x4a
.globl vector75
  1027ea:	e9 dd 07 00 00       	jmp    102fcc <__alltraps>

001027ef <vector75>:
vector75:
  pushl $0
  pushl $75
  1027ef:	6a 00                	push   $0x0
  jmp __alltraps
  1027f1:	6a 4b                	push   $0x4b
.globl vector76
  1027f3:	e9 d4 07 00 00       	jmp    102fcc <__alltraps>

001027f8 <vector76>:
vector76:
  pushl $0
  pushl $76
  1027f8:	6a 00                	push   $0x0
  jmp __alltraps
  1027fa:	6a 4c                	push   $0x4c
.globl vector77
  1027fc:	e9 cb 07 00 00       	jmp    102fcc <__alltraps>

00102801 <vector77>:
vector77:
  pushl $0
  pushl $77
  102801:	6a 00                	push   $0x0
  jmp __alltraps
  102803:	6a 4d                	push   $0x4d
.globl vector78
  102805:	e9 c2 07 00 00       	jmp    102fcc <__alltraps>

0010280a <vector78>:
vector78:
  pushl $0
  pushl $78
  10280a:	6a 00                	push   $0x0
  jmp __alltraps
  10280c:	6a 4e                	push   $0x4e
.globl vector79
  10280e:	e9 b9 07 00 00       	jmp    102fcc <__alltraps>

00102813 <vector79>:
vector79:
  pushl $0
  pushl $79
  102813:	6a 00                	push   $0x0
  jmp __alltraps
  102815:	6a 4f                	push   $0x4f
.globl vector80
  102817:	e9 b0 07 00 00       	jmp    102fcc <__alltraps>

0010281c <vector80>:
vector80:
  pushl $0
  pushl $80
  10281c:	6a 00                	push   $0x0
  jmp __alltraps
  10281e:	6a 50                	push   $0x50
.globl vector81
  102820:	e9 a7 07 00 00       	jmp    102fcc <__alltraps>

00102825 <vector81>:
vector81:
  pushl $0
  pushl $81
  102825:	6a 00                	push   $0x0
  jmp __alltraps
  102827:	6a 51                	push   $0x51
.globl vector82
  102829:	e9 9e 07 00 00       	jmp    102fcc <__alltraps>

0010282e <vector82>:
vector82:
  pushl $0
  pushl $82
  10282e:	6a 00                	push   $0x0
  jmp __alltraps
  102830:	6a 52                	push   $0x52
.globl vector83
  102832:	e9 95 07 00 00       	jmp    102fcc <__alltraps>

00102837 <vector83>:
vector83:
  pushl $0
  pushl $83
  102837:	6a 00                	push   $0x0
  jmp __alltraps
  102839:	6a 53                	push   $0x53
.globl vector84
  10283b:	e9 8c 07 00 00       	jmp    102fcc <__alltraps>

00102840 <vector84>:
vector84:
  pushl $0
  pushl $84
  102840:	6a 00                	push   $0x0
  jmp __alltraps
  102842:	6a 54                	push   $0x54
.globl vector85
  102844:	e9 83 07 00 00       	jmp    102fcc <__alltraps>

00102849 <vector85>:
vector85:
  pushl $0
  pushl $85
  102849:	6a 00                	push   $0x0
  jmp __alltraps
  10284b:	6a 55                	push   $0x55
.globl vector86
  10284d:	e9 7a 07 00 00       	jmp    102fcc <__alltraps>

00102852 <vector86>:
vector86:
  pushl $0
  pushl $86
  102852:	6a 00                	push   $0x0
  jmp __alltraps
  102854:	6a 56                	push   $0x56
.globl vector87
  102856:	e9 71 07 00 00       	jmp    102fcc <__alltraps>

0010285b <vector87>:
vector87:
  pushl $0
  pushl $87
  10285b:	6a 00                	push   $0x0
  jmp __alltraps
  10285d:	6a 57                	push   $0x57
.globl vector88
  10285f:	e9 68 07 00 00       	jmp    102fcc <__alltraps>

00102864 <vector88>:
vector88:
  pushl $0
  pushl $88
  102864:	6a 00                	push   $0x0
  jmp __alltraps
  102866:	6a 58                	push   $0x58
.globl vector89
  102868:	e9 5f 07 00 00       	jmp    102fcc <__alltraps>

0010286d <vector89>:
vector89:
  pushl $0
  pushl $89
  10286d:	6a 00                	push   $0x0
  jmp __alltraps
  10286f:	6a 59                	push   $0x59
.globl vector90
  102871:	e9 56 07 00 00       	jmp    102fcc <__alltraps>

00102876 <vector90>:
vector90:
  pushl $0
  pushl $90
  102876:	6a 00                	push   $0x0
  jmp __alltraps
  102878:	6a 5a                	push   $0x5a
.globl vector91
  10287a:	e9 4d 07 00 00       	jmp    102fcc <__alltraps>

0010287f <vector91>:
vector91:
  pushl $0
  pushl $91
  10287f:	6a 00                	push   $0x0
  jmp __alltraps
  102881:	6a 5b                	push   $0x5b
.globl vector92
  102883:	e9 44 07 00 00       	jmp    102fcc <__alltraps>

00102888 <vector92>:
vector92:
  pushl $0
  pushl $92
  102888:	6a 00                	push   $0x0
  jmp __alltraps
  10288a:	6a 5c                	push   $0x5c
.globl vector93
  10288c:	e9 3b 07 00 00       	jmp    102fcc <__alltraps>

00102891 <vector93>:
vector93:
  pushl $0
  pushl $93
  102891:	6a 00                	push   $0x0
  jmp __alltraps
  102893:	6a 5d                	push   $0x5d
.globl vector94
  102895:	e9 32 07 00 00       	jmp    102fcc <__alltraps>

0010289a <vector94>:
vector94:
  pushl $0
  pushl $94
  10289a:	6a 00                	push   $0x0
  jmp __alltraps
  10289c:	6a 5e                	push   $0x5e
.globl vector95
  10289e:	e9 29 07 00 00       	jmp    102fcc <__alltraps>

001028a3 <vector95>:
vector95:
  pushl $0
  pushl $95
  1028a3:	6a 00                	push   $0x0
  jmp __alltraps
  1028a5:	6a 5f                	push   $0x5f
.globl vector96
  1028a7:	e9 20 07 00 00       	jmp    102fcc <__alltraps>

001028ac <vector96>:
vector96:
  pushl $0
  pushl $96
  1028ac:	6a 00                	push   $0x0
  jmp __alltraps
  1028ae:	6a 60                	push   $0x60
.globl vector97
  1028b0:	e9 17 07 00 00       	jmp    102fcc <__alltraps>

001028b5 <vector97>:
vector97:
  pushl $0
  pushl $97
  1028b5:	6a 00                	push   $0x0
  jmp __alltraps
  1028b7:	6a 61                	push   $0x61
.globl vector98
  1028b9:	e9 0e 07 00 00       	jmp    102fcc <__alltraps>

001028be <vector98>:
vector98:
  pushl $0
  pushl $98
  1028be:	6a 00                	push   $0x0
  jmp __alltraps
  1028c0:	6a 62                	push   $0x62
.globl vector99
  1028c2:	e9 05 07 00 00       	jmp    102fcc <__alltraps>

001028c7 <vector99>:
vector99:
  pushl $0
  pushl $99
  1028c7:	6a 00                	push   $0x0
  jmp __alltraps
  1028c9:	6a 63                	push   $0x63
.globl vector100
  1028cb:	e9 fc 06 00 00       	jmp    102fcc <__alltraps>

001028d0 <vector100>:
vector100:
  pushl $0
  pushl $100
  1028d0:	6a 00                	push   $0x0
  jmp __alltraps
  1028d2:	6a 64                	push   $0x64
.globl vector101
  1028d4:	e9 f3 06 00 00       	jmp    102fcc <__alltraps>

001028d9 <vector101>:
vector101:
  pushl $0
  pushl $101
  1028d9:	6a 00                	push   $0x0
  jmp __alltraps
  1028db:	6a 65                	push   $0x65
.globl vector102
  1028dd:	e9 ea 06 00 00       	jmp    102fcc <__alltraps>

001028e2 <vector102>:
vector102:
  pushl $0
  pushl $102
  1028e2:	6a 00                	push   $0x0
  jmp __alltraps
  1028e4:	6a 66                	push   $0x66
.globl vector103
  1028e6:	e9 e1 06 00 00       	jmp    102fcc <__alltraps>

001028eb <vector103>:
vector103:
  pushl $0
  pushl $103
  1028eb:	6a 00                	push   $0x0
  jmp __alltraps
  1028ed:	6a 67                	push   $0x67
.globl vector104
  1028ef:	e9 d8 06 00 00       	jmp    102fcc <__alltraps>

001028f4 <vector104>:
vector104:
  pushl $0
  pushl $104
  1028f4:	6a 00                	push   $0x0
  jmp __alltraps
  1028f6:	6a 68                	push   $0x68
.globl vector105
  1028f8:	e9 cf 06 00 00       	jmp    102fcc <__alltraps>

001028fd <vector105>:
vector105:
  pushl $0
  pushl $105
  1028fd:	6a 00                	push   $0x0
  jmp __alltraps
  1028ff:	6a 69                	push   $0x69
.globl vector106
  102901:	e9 c6 06 00 00       	jmp    102fcc <__alltraps>

00102906 <vector106>:
vector106:
  pushl $0
  pushl $106
  102906:	6a 00                	push   $0x0
  jmp __alltraps
  102908:	6a 6a                	push   $0x6a
.globl vector107
  10290a:	e9 bd 06 00 00       	jmp    102fcc <__alltraps>

0010290f <vector107>:
vector107:
  pushl $0
  pushl $107
  10290f:	6a 00                	push   $0x0
  jmp __alltraps
  102911:	6a 6b                	push   $0x6b
.globl vector108
  102913:	e9 b4 06 00 00       	jmp    102fcc <__alltraps>

00102918 <vector108>:
vector108:
  pushl $0
  pushl $108
  102918:	6a 00                	push   $0x0
  jmp __alltraps
  10291a:	6a 6c                	push   $0x6c
.globl vector109
  10291c:	e9 ab 06 00 00       	jmp    102fcc <__alltraps>

00102921 <vector109>:
vector109:
  pushl $0
  pushl $109
  102921:	6a 00                	push   $0x0
  jmp __alltraps
  102923:	6a 6d                	push   $0x6d
.globl vector110
  102925:	e9 a2 06 00 00       	jmp    102fcc <__alltraps>

0010292a <vector110>:
vector110:
  pushl $0
  pushl $110
  10292a:	6a 00                	push   $0x0
  jmp __alltraps
  10292c:	6a 6e                	push   $0x6e
.globl vector111
  10292e:	e9 99 06 00 00       	jmp    102fcc <__alltraps>

00102933 <vector111>:
vector111:
  pushl $0
  pushl $111
  102933:	6a 00                	push   $0x0
  jmp __alltraps
  102935:	6a 6f                	push   $0x6f
.globl vector112
  102937:	e9 90 06 00 00       	jmp    102fcc <__alltraps>

0010293c <vector112>:
vector112:
  pushl $0
  pushl $112
  10293c:	6a 00                	push   $0x0
  jmp __alltraps
  10293e:	6a 70                	push   $0x70
.globl vector113
  102940:	e9 87 06 00 00       	jmp    102fcc <__alltraps>

00102945 <vector113>:
vector113:
  pushl $0
  pushl $113
  102945:	6a 00                	push   $0x0
  jmp __alltraps
  102947:	6a 71                	push   $0x71
.globl vector114
  102949:	e9 7e 06 00 00       	jmp    102fcc <__alltraps>

0010294e <vector114>:
vector114:
  pushl $0
  pushl $114
  10294e:	6a 00                	push   $0x0
  jmp __alltraps
  102950:	6a 72                	push   $0x72
.globl vector115
  102952:	e9 75 06 00 00       	jmp    102fcc <__alltraps>

00102957 <vector115>:
vector115:
  pushl $0
  pushl $115
  102957:	6a 00                	push   $0x0
  jmp __alltraps
  102959:	6a 73                	push   $0x73
.globl vector116
  10295b:	e9 6c 06 00 00       	jmp    102fcc <__alltraps>

00102960 <vector116>:
vector116:
  pushl $0
  pushl $116
  102960:	6a 00                	push   $0x0
  jmp __alltraps
  102962:	6a 74                	push   $0x74
.globl vector117
  102964:	e9 63 06 00 00       	jmp    102fcc <__alltraps>

00102969 <vector117>:
vector117:
  pushl $0
  pushl $117
  102969:	6a 00                	push   $0x0
  jmp __alltraps
  10296b:	6a 75                	push   $0x75
.globl vector118
  10296d:	e9 5a 06 00 00       	jmp    102fcc <__alltraps>

00102972 <vector118>:
vector118:
  pushl $0
  pushl $118
  102972:	6a 00                	push   $0x0
  jmp __alltraps
  102974:	6a 76                	push   $0x76
.globl vector119
  102976:	e9 51 06 00 00       	jmp    102fcc <__alltraps>

0010297b <vector119>:
vector119:
  pushl $0
  pushl $119
  10297b:	6a 00                	push   $0x0
  jmp __alltraps
  10297d:	6a 77                	push   $0x77
.globl vector120
  10297f:	e9 48 06 00 00       	jmp    102fcc <__alltraps>

00102984 <vector120>:
vector120:
  pushl $0
  pushl $120
  102984:	6a 00                	push   $0x0
  jmp __alltraps
  102986:	6a 78                	push   $0x78
.globl vector121
  102988:	e9 3f 06 00 00       	jmp    102fcc <__alltraps>

0010298d <vector121>:
vector121:
  pushl $0
  pushl $121
  10298d:	6a 00                	push   $0x0
  jmp __alltraps
  10298f:	6a 79                	push   $0x79
.globl vector122
  102991:	e9 36 06 00 00       	jmp    102fcc <__alltraps>

00102996 <vector122>:
vector122:
  pushl $0
  pushl $122
  102996:	6a 00                	push   $0x0
  jmp __alltraps
  102998:	6a 7a                	push   $0x7a
.globl vector123
  10299a:	e9 2d 06 00 00       	jmp    102fcc <__alltraps>

0010299f <vector123>:
vector123:
  pushl $0
  pushl $123
  10299f:	6a 00                	push   $0x0
  jmp __alltraps
  1029a1:	6a 7b                	push   $0x7b
.globl vector124
  1029a3:	e9 24 06 00 00       	jmp    102fcc <__alltraps>

001029a8 <vector124>:
vector124:
  pushl $0
  pushl $124
  1029a8:	6a 00                	push   $0x0
  jmp __alltraps
  1029aa:	6a 7c                	push   $0x7c
.globl vector125
  1029ac:	e9 1b 06 00 00       	jmp    102fcc <__alltraps>

001029b1 <vector125>:
vector125:
  pushl $0
  pushl $125
  1029b1:	6a 00                	push   $0x0
  jmp __alltraps
  1029b3:	6a 7d                	push   $0x7d
.globl vector126
  1029b5:	e9 12 06 00 00       	jmp    102fcc <__alltraps>

001029ba <vector126>:
vector126:
  pushl $0
  pushl $126
  1029ba:	6a 00                	push   $0x0
  jmp __alltraps
  1029bc:	6a 7e                	push   $0x7e
.globl vector127
  1029be:	e9 09 06 00 00       	jmp    102fcc <__alltraps>

001029c3 <vector127>:
vector127:
  pushl $0
  pushl $127
  1029c3:	6a 00                	push   $0x0
  jmp __alltraps
  1029c5:	6a 7f                	push   $0x7f
.globl vector128
  1029c7:	e9 00 06 00 00       	jmp    102fcc <__alltraps>

001029cc <vector128>:
vector128:
  pushl $0
  pushl $128
  1029cc:	6a 00                	push   $0x0
  jmp __alltraps
  1029ce:	68 80 00 00 00       	push   $0x80
.globl vector129
  1029d3:	e9 f4 05 00 00       	jmp    102fcc <__alltraps>

001029d8 <vector129>:
vector129:
  pushl $0
  pushl $129
  1029d8:	6a 00                	push   $0x0
  jmp __alltraps
  1029da:	68 81 00 00 00       	push   $0x81
.globl vector130
  1029df:	e9 e8 05 00 00       	jmp    102fcc <__alltraps>

001029e4 <vector130>:
vector130:
  pushl $0
  pushl $130
  1029e4:	6a 00                	push   $0x0
  jmp __alltraps
  1029e6:	68 82 00 00 00       	push   $0x82
.globl vector131
  1029eb:	e9 dc 05 00 00       	jmp    102fcc <__alltraps>

001029f0 <vector131>:
vector131:
  pushl $0
  pushl $131
  1029f0:	6a 00                	push   $0x0
  jmp __alltraps
  1029f2:	68 83 00 00 00       	push   $0x83
.globl vector132
  1029f7:	e9 d0 05 00 00       	jmp    102fcc <__alltraps>

001029fc <vector132>:
vector132:
  pushl $0
  pushl $132
  1029fc:	6a 00                	push   $0x0
  jmp __alltraps
  1029fe:	68 84 00 00 00       	push   $0x84
.globl vector133
  102a03:	e9 c4 05 00 00       	jmp    102fcc <__alltraps>

00102a08 <vector133>:
vector133:
  pushl $0
  pushl $133
  102a08:	6a 00                	push   $0x0
  jmp __alltraps
  102a0a:	68 85 00 00 00       	push   $0x85
.globl vector134
  102a0f:	e9 b8 05 00 00       	jmp    102fcc <__alltraps>

00102a14 <vector134>:
vector134:
  pushl $0
  pushl $134
  102a14:	6a 00                	push   $0x0
  jmp __alltraps
  102a16:	68 86 00 00 00       	push   $0x86
.globl vector135
  102a1b:	e9 ac 05 00 00       	jmp    102fcc <__alltraps>

00102a20 <vector135>:
vector135:
  pushl $0
  pushl $135
  102a20:	6a 00                	push   $0x0
  jmp __alltraps
  102a22:	68 87 00 00 00       	push   $0x87
.globl vector136
  102a27:	e9 a0 05 00 00       	jmp    102fcc <__alltraps>

00102a2c <vector136>:
vector136:
  pushl $0
  pushl $136
  102a2c:	6a 00                	push   $0x0
  jmp __alltraps
  102a2e:	68 88 00 00 00       	push   $0x88
.globl vector137
  102a33:	e9 94 05 00 00       	jmp    102fcc <__alltraps>

00102a38 <vector137>:
vector137:
  pushl $0
  pushl $137
  102a38:	6a 00                	push   $0x0
  jmp __alltraps
  102a3a:	68 89 00 00 00       	push   $0x89
.globl vector138
  102a3f:	e9 88 05 00 00       	jmp    102fcc <__alltraps>

00102a44 <vector138>:
vector138:
  pushl $0
  pushl $138
  102a44:	6a 00                	push   $0x0
  jmp __alltraps
  102a46:	68 8a 00 00 00       	push   $0x8a
.globl vector139
  102a4b:	e9 7c 05 00 00       	jmp    102fcc <__alltraps>

00102a50 <vector139>:
vector139:
  pushl $0
  pushl $139
  102a50:	6a 00                	push   $0x0
  jmp __alltraps
  102a52:	68 8b 00 00 00       	push   $0x8b
.globl vector140
  102a57:	e9 70 05 00 00       	jmp    102fcc <__alltraps>

00102a5c <vector140>:
vector140:
  pushl $0
  pushl $140
  102a5c:	6a 00                	push   $0x0
  jmp __alltraps
  102a5e:	68 8c 00 00 00       	push   $0x8c
.globl vector141
  102a63:	e9 64 05 00 00       	jmp    102fcc <__alltraps>

00102a68 <vector141>:
vector141:
  pushl $0
  pushl $141
  102a68:	6a 00                	push   $0x0
  jmp __alltraps
  102a6a:	68 8d 00 00 00       	push   $0x8d
.globl vector142
  102a6f:	e9 58 05 00 00       	jmp    102fcc <__alltraps>

00102a74 <vector142>:
vector142:
  pushl $0
  pushl $142
  102a74:	6a 00                	push   $0x0
  jmp __alltraps
  102a76:	68 8e 00 00 00       	push   $0x8e
.globl vector143
  102a7b:	e9 4c 05 00 00       	jmp    102fcc <__alltraps>

00102a80 <vector143>:
vector143:
  pushl $0
  pushl $143
  102a80:	6a 00                	push   $0x0
  jmp __alltraps
  102a82:	68 8f 00 00 00       	push   $0x8f
.globl vector144
  102a87:	e9 40 05 00 00       	jmp    102fcc <__alltraps>

00102a8c <vector144>:
vector144:
  pushl $0
  pushl $144
  102a8c:	6a 00                	push   $0x0
  jmp __alltraps
  102a8e:	68 90 00 00 00       	push   $0x90
.globl vector145
  102a93:	e9 34 05 00 00       	jmp    102fcc <__alltraps>

00102a98 <vector145>:
vector145:
  pushl $0
  pushl $145
  102a98:	6a 00                	push   $0x0
  jmp __alltraps
  102a9a:	68 91 00 00 00       	push   $0x91
.globl vector146
  102a9f:	e9 28 05 00 00       	jmp    102fcc <__alltraps>

00102aa4 <vector146>:
vector146:
  pushl $0
  pushl $146
  102aa4:	6a 00                	push   $0x0
  jmp __alltraps
  102aa6:	68 92 00 00 00       	push   $0x92
.globl vector147
  102aab:	e9 1c 05 00 00       	jmp    102fcc <__alltraps>

00102ab0 <vector147>:
vector147:
  pushl $0
  pushl $147
  102ab0:	6a 00                	push   $0x0
  jmp __alltraps
  102ab2:	68 93 00 00 00       	push   $0x93
.globl vector148
  102ab7:	e9 10 05 00 00       	jmp    102fcc <__alltraps>

00102abc <vector148>:
vector148:
  pushl $0
  pushl $148
  102abc:	6a 00                	push   $0x0
  jmp __alltraps
  102abe:	68 94 00 00 00       	push   $0x94
.globl vector149
  102ac3:	e9 04 05 00 00       	jmp    102fcc <__alltraps>

00102ac8 <vector149>:
vector149:
  pushl $0
  pushl $149
  102ac8:	6a 00                	push   $0x0
  jmp __alltraps
  102aca:	68 95 00 00 00       	push   $0x95
.globl vector150
  102acf:	e9 f8 04 00 00       	jmp    102fcc <__alltraps>

00102ad4 <vector150>:
vector150:
  pushl $0
  pushl $150
  102ad4:	6a 00                	push   $0x0
  jmp __alltraps
  102ad6:	68 96 00 00 00       	push   $0x96
.globl vector151
  102adb:	e9 ec 04 00 00       	jmp    102fcc <__alltraps>

00102ae0 <vector151>:
vector151:
  pushl $0
  pushl $151
  102ae0:	6a 00                	push   $0x0
  jmp __alltraps
  102ae2:	68 97 00 00 00       	push   $0x97
.globl vector152
  102ae7:	e9 e0 04 00 00       	jmp    102fcc <__alltraps>

00102aec <vector152>:
vector152:
  pushl $0
  pushl $152
  102aec:	6a 00                	push   $0x0
  jmp __alltraps
  102aee:	68 98 00 00 00       	push   $0x98
.globl vector153
  102af3:	e9 d4 04 00 00       	jmp    102fcc <__alltraps>

00102af8 <vector153>:
vector153:
  pushl $0
  pushl $153
  102af8:	6a 00                	push   $0x0
  jmp __alltraps
  102afa:	68 99 00 00 00       	push   $0x99
.globl vector154
  102aff:	e9 c8 04 00 00       	jmp    102fcc <__alltraps>

00102b04 <vector154>:
vector154:
  pushl $0
  pushl $154
  102b04:	6a 00                	push   $0x0
  jmp __alltraps
  102b06:	68 9a 00 00 00       	push   $0x9a
.globl vector155
  102b0b:	e9 bc 04 00 00       	jmp    102fcc <__alltraps>

00102b10 <vector155>:
vector155:
  pushl $0
  pushl $155
  102b10:	6a 00                	push   $0x0
  jmp __alltraps
  102b12:	68 9b 00 00 00       	push   $0x9b
.globl vector156
  102b17:	e9 b0 04 00 00       	jmp    102fcc <__alltraps>

00102b1c <vector156>:
vector156:
  pushl $0
  pushl $156
  102b1c:	6a 00                	push   $0x0
  jmp __alltraps
  102b1e:	68 9c 00 00 00       	push   $0x9c
.globl vector157
  102b23:	e9 a4 04 00 00       	jmp    102fcc <__alltraps>

00102b28 <vector157>:
vector157:
  pushl $0
  pushl $157
  102b28:	6a 00                	push   $0x0
  jmp __alltraps
  102b2a:	68 9d 00 00 00       	push   $0x9d
.globl vector158
  102b2f:	e9 98 04 00 00       	jmp    102fcc <__alltraps>

00102b34 <vector158>:
vector158:
  pushl $0
  pushl $158
  102b34:	6a 00                	push   $0x0
  jmp __alltraps
  102b36:	68 9e 00 00 00       	push   $0x9e
.globl vector159
  102b3b:	e9 8c 04 00 00       	jmp    102fcc <__alltraps>

00102b40 <vector159>:
vector159:
  pushl $0
  pushl $159
  102b40:	6a 00                	push   $0x0
  jmp __alltraps
  102b42:	68 9f 00 00 00       	push   $0x9f
.globl vector160
  102b47:	e9 80 04 00 00       	jmp    102fcc <__alltraps>

00102b4c <vector160>:
vector160:
  pushl $0
  pushl $160
  102b4c:	6a 00                	push   $0x0
  jmp __alltraps
  102b4e:	68 a0 00 00 00       	push   $0xa0
.globl vector161
  102b53:	e9 74 04 00 00       	jmp    102fcc <__alltraps>

00102b58 <vector161>:
vector161:
  pushl $0
  pushl $161
  102b58:	6a 00                	push   $0x0
  jmp __alltraps
  102b5a:	68 a1 00 00 00       	push   $0xa1
.globl vector162
  102b5f:	e9 68 04 00 00       	jmp    102fcc <__alltraps>

00102b64 <vector162>:
vector162:
  pushl $0
  pushl $162
  102b64:	6a 00                	push   $0x0
  jmp __alltraps
  102b66:	68 a2 00 00 00       	push   $0xa2
.globl vector163
  102b6b:	e9 5c 04 00 00       	jmp    102fcc <__alltraps>

00102b70 <vector163>:
vector163:
  pushl $0
  pushl $163
  102b70:	6a 00                	push   $0x0
  jmp __alltraps
  102b72:	68 a3 00 00 00       	push   $0xa3
.globl vector164
  102b77:	e9 50 04 00 00       	jmp    102fcc <__alltraps>

00102b7c <vector164>:
vector164:
  pushl $0
  pushl $164
  102b7c:	6a 00                	push   $0x0
  jmp __alltraps
  102b7e:	68 a4 00 00 00       	push   $0xa4
.globl vector165
  102b83:	e9 44 04 00 00       	jmp    102fcc <__alltraps>

00102b88 <vector165>:
vector165:
  pushl $0
  pushl $165
  102b88:	6a 00                	push   $0x0
  jmp __alltraps
  102b8a:	68 a5 00 00 00       	push   $0xa5
.globl vector166
  102b8f:	e9 38 04 00 00       	jmp    102fcc <__alltraps>

00102b94 <vector166>:
vector166:
  pushl $0
  pushl $166
  102b94:	6a 00                	push   $0x0
  jmp __alltraps
  102b96:	68 a6 00 00 00       	push   $0xa6
.globl vector167
  102b9b:	e9 2c 04 00 00       	jmp    102fcc <__alltraps>

00102ba0 <vector167>:
vector167:
  pushl $0
  pushl $167
  102ba0:	6a 00                	push   $0x0
  jmp __alltraps
  102ba2:	68 a7 00 00 00       	push   $0xa7
.globl vector168
  102ba7:	e9 20 04 00 00       	jmp    102fcc <__alltraps>

00102bac <vector168>:
vector168:
  pushl $0
  pushl $168
  102bac:	6a 00                	push   $0x0
  jmp __alltraps
  102bae:	68 a8 00 00 00       	push   $0xa8
.globl vector169
  102bb3:	e9 14 04 00 00       	jmp    102fcc <__alltraps>

00102bb8 <vector169>:
vector169:
  pushl $0
  pushl $169
  102bb8:	6a 00                	push   $0x0
  jmp __alltraps
  102bba:	68 a9 00 00 00       	push   $0xa9
.globl vector170
  102bbf:	e9 08 04 00 00       	jmp    102fcc <__alltraps>

00102bc4 <vector170>:
vector170:
  pushl $0
  pushl $170
  102bc4:	6a 00                	push   $0x0
  jmp __alltraps
  102bc6:	68 aa 00 00 00       	push   $0xaa
.globl vector171
  102bcb:	e9 fc 03 00 00       	jmp    102fcc <__alltraps>

00102bd0 <vector171>:
vector171:
  pushl $0
  pushl $171
  102bd0:	6a 00                	push   $0x0
  jmp __alltraps
  102bd2:	68 ab 00 00 00       	push   $0xab
.globl vector172
  102bd7:	e9 f0 03 00 00       	jmp    102fcc <__alltraps>

00102bdc <vector172>:
vector172:
  pushl $0
  pushl $172
  102bdc:	6a 00                	push   $0x0
  jmp __alltraps
  102bde:	68 ac 00 00 00       	push   $0xac
.globl vector173
  102be3:	e9 e4 03 00 00       	jmp    102fcc <__alltraps>

00102be8 <vector173>:
vector173:
  pushl $0
  pushl $173
  102be8:	6a 00                	push   $0x0
  jmp __alltraps
  102bea:	68 ad 00 00 00       	push   $0xad
.globl vector174
  102bef:	e9 d8 03 00 00       	jmp    102fcc <__alltraps>

00102bf4 <vector174>:
vector174:
  pushl $0
  pushl $174
  102bf4:	6a 00                	push   $0x0
  jmp __alltraps
  102bf6:	68 ae 00 00 00       	push   $0xae
.globl vector175
  102bfb:	e9 cc 03 00 00       	jmp    102fcc <__alltraps>

00102c00 <vector175>:
vector175:
  pushl $0
  pushl $175
  102c00:	6a 00                	push   $0x0
  jmp __alltraps
  102c02:	68 af 00 00 00       	push   $0xaf
.globl vector176
  102c07:	e9 c0 03 00 00       	jmp    102fcc <__alltraps>

00102c0c <vector176>:
vector176:
  pushl $0
  pushl $176
  102c0c:	6a 00                	push   $0x0
  jmp __alltraps
  102c0e:	68 b0 00 00 00       	push   $0xb0
.globl vector177
  102c13:	e9 b4 03 00 00       	jmp    102fcc <__alltraps>

00102c18 <vector177>:
vector177:
  pushl $0
  pushl $177
  102c18:	6a 00                	push   $0x0
  jmp __alltraps
  102c1a:	68 b1 00 00 00       	push   $0xb1
.globl vector178
  102c1f:	e9 a8 03 00 00       	jmp    102fcc <__alltraps>

00102c24 <vector178>:
vector178:
  pushl $0
  pushl $178
  102c24:	6a 00                	push   $0x0
  jmp __alltraps
  102c26:	68 b2 00 00 00       	push   $0xb2
.globl vector179
  102c2b:	e9 9c 03 00 00       	jmp    102fcc <__alltraps>

00102c30 <vector179>:
vector179:
  pushl $0
  pushl $179
  102c30:	6a 00                	push   $0x0
  jmp __alltraps
  102c32:	68 b3 00 00 00       	push   $0xb3
.globl vector180
  102c37:	e9 90 03 00 00       	jmp    102fcc <__alltraps>

00102c3c <vector180>:
vector180:
  pushl $0
  pushl $180
  102c3c:	6a 00                	push   $0x0
  jmp __alltraps
  102c3e:	68 b4 00 00 00       	push   $0xb4
.globl vector181
  102c43:	e9 84 03 00 00       	jmp    102fcc <__alltraps>

00102c48 <vector181>:
vector181:
  pushl $0
  pushl $181
  102c48:	6a 00                	push   $0x0
  jmp __alltraps
  102c4a:	68 b5 00 00 00       	push   $0xb5
.globl vector182
  102c4f:	e9 78 03 00 00       	jmp    102fcc <__alltraps>

00102c54 <vector182>:
vector182:
  pushl $0
  pushl $182
  102c54:	6a 00                	push   $0x0
  jmp __alltraps
  102c56:	68 b6 00 00 00       	push   $0xb6
.globl vector183
  102c5b:	e9 6c 03 00 00       	jmp    102fcc <__alltraps>

00102c60 <vector183>:
vector183:
  pushl $0
  pushl $183
  102c60:	6a 00                	push   $0x0
  jmp __alltraps
  102c62:	68 b7 00 00 00       	push   $0xb7
.globl vector184
  102c67:	e9 60 03 00 00       	jmp    102fcc <__alltraps>

00102c6c <vector184>:
vector184:
  pushl $0
  pushl $184
  102c6c:	6a 00                	push   $0x0
  jmp __alltraps
  102c6e:	68 b8 00 00 00       	push   $0xb8
.globl vector185
  102c73:	e9 54 03 00 00       	jmp    102fcc <__alltraps>

00102c78 <vector185>:
vector185:
  pushl $0
  pushl $185
  102c78:	6a 00                	push   $0x0
  jmp __alltraps
  102c7a:	68 b9 00 00 00       	push   $0xb9
.globl vector186
  102c7f:	e9 48 03 00 00       	jmp    102fcc <__alltraps>

00102c84 <vector186>:
vector186:
  pushl $0
  pushl $186
  102c84:	6a 00                	push   $0x0
  jmp __alltraps
  102c86:	68 ba 00 00 00       	push   $0xba
.globl vector187
  102c8b:	e9 3c 03 00 00       	jmp    102fcc <__alltraps>

00102c90 <vector187>:
vector187:
  pushl $0
  pushl $187
  102c90:	6a 00                	push   $0x0
  jmp __alltraps
  102c92:	68 bb 00 00 00       	push   $0xbb
.globl vector188
  102c97:	e9 30 03 00 00       	jmp    102fcc <__alltraps>

00102c9c <vector188>:
vector188:
  pushl $0
  pushl $188
  102c9c:	6a 00                	push   $0x0
  jmp __alltraps
  102c9e:	68 bc 00 00 00       	push   $0xbc
.globl vector189
  102ca3:	e9 24 03 00 00       	jmp    102fcc <__alltraps>

00102ca8 <vector189>:
vector189:
  pushl $0
  pushl $189
  102ca8:	6a 00                	push   $0x0
  jmp __alltraps
  102caa:	68 bd 00 00 00       	push   $0xbd
.globl vector190
  102caf:	e9 18 03 00 00       	jmp    102fcc <__alltraps>

00102cb4 <vector190>:
vector190:
  pushl $0
  pushl $190
  102cb4:	6a 00                	push   $0x0
  jmp __alltraps
  102cb6:	68 be 00 00 00       	push   $0xbe
.globl vector191
  102cbb:	e9 0c 03 00 00       	jmp    102fcc <__alltraps>

00102cc0 <vector191>:
vector191:
  pushl $0
  pushl $191
  102cc0:	6a 00                	push   $0x0
  jmp __alltraps
  102cc2:	68 bf 00 00 00       	push   $0xbf
.globl vector192
  102cc7:	e9 00 03 00 00       	jmp    102fcc <__alltraps>

00102ccc <vector192>:
vector192:
  pushl $0
  pushl $192
  102ccc:	6a 00                	push   $0x0
  jmp __alltraps
  102cce:	68 c0 00 00 00       	push   $0xc0
.globl vector193
  102cd3:	e9 f4 02 00 00       	jmp    102fcc <__alltraps>

00102cd8 <vector193>:
vector193:
  pushl $0
  pushl $193
  102cd8:	6a 00                	push   $0x0
  jmp __alltraps
  102cda:	68 c1 00 00 00       	push   $0xc1
.globl vector194
  102cdf:	e9 e8 02 00 00       	jmp    102fcc <__alltraps>

00102ce4 <vector194>:
vector194:
  pushl $0
  pushl $194
  102ce4:	6a 00                	push   $0x0
  jmp __alltraps
  102ce6:	68 c2 00 00 00       	push   $0xc2
.globl vector195
  102ceb:	e9 dc 02 00 00       	jmp    102fcc <__alltraps>

00102cf0 <vector195>:
vector195:
  pushl $0
  pushl $195
  102cf0:	6a 00                	push   $0x0
  jmp __alltraps
  102cf2:	68 c3 00 00 00       	push   $0xc3
.globl vector196
  102cf7:	e9 d0 02 00 00       	jmp    102fcc <__alltraps>

00102cfc <vector196>:
vector196:
  pushl $0
  pushl $196
  102cfc:	6a 00                	push   $0x0
  jmp __alltraps
  102cfe:	68 c4 00 00 00       	push   $0xc4
.globl vector197
  102d03:	e9 c4 02 00 00       	jmp    102fcc <__alltraps>

00102d08 <vector197>:
vector197:
  pushl $0
  pushl $197
  102d08:	6a 00                	push   $0x0
  jmp __alltraps
  102d0a:	68 c5 00 00 00       	push   $0xc5
.globl vector198
  102d0f:	e9 b8 02 00 00       	jmp    102fcc <__alltraps>

00102d14 <vector198>:
vector198:
  pushl $0
  pushl $198
  102d14:	6a 00                	push   $0x0
  jmp __alltraps
  102d16:	68 c6 00 00 00       	push   $0xc6
.globl vector199
  102d1b:	e9 ac 02 00 00       	jmp    102fcc <__alltraps>

00102d20 <vector199>:
vector199:
  pushl $0
  pushl $199
  102d20:	6a 00                	push   $0x0
  jmp __alltraps
  102d22:	68 c7 00 00 00       	push   $0xc7
.globl vector200
  102d27:	e9 a0 02 00 00       	jmp    102fcc <__alltraps>

00102d2c <vector200>:
vector200:
  pushl $0
  pushl $200
  102d2c:	6a 00                	push   $0x0
  jmp __alltraps
  102d2e:	68 c8 00 00 00       	push   $0xc8
.globl vector201
  102d33:	e9 94 02 00 00       	jmp    102fcc <__alltraps>

00102d38 <vector201>:
vector201:
  pushl $0
  pushl $201
  102d38:	6a 00                	push   $0x0
  jmp __alltraps
  102d3a:	68 c9 00 00 00       	push   $0xc9
.globl vector202
  102d3f:	e9 88 02 00 00       	jmp    102fcc <__alltraps>

00102d44 <vector202>:
vector202:
  pushl $0
  pushl $202
  102d44:	6a 00                	push   $0x0
  jmp __alltraps
  102d46:	68 ca 00 00 00       	push   $0xca
.globl vector203
  102d4b:	e9 7c 02 00 00       	jmp    102fcc <__alltraps>

00102d50 <vector203>:
vector203:
  pushl $0
  pushl $203
  102d50:	6a 00                	push   $0x0
  jmp __alltraps
  102d52:	68 cb 00 00 00       	push   $0xcb
.globl vector204
  102d57:	e9 70 02 00 00       	jmp    102fcc <__alltraps>

00102d5c <vector204>:
vector204:
  pushl $0
  pushl $204
  102d5c:	6a 00                	push   $0x0
  jmp __alltraps
  102d5e:	68 cc 00 00 00       	push   $0xcc
.globl vector205
  102d63:	e9 64 02 00 00       	jmp    102fcc <__alltraps>

00102d68 <vector205>:
vector205:
  pushl $0
  pushl $205
  102d68:	6a 00                	push   $0x0
  jmp __alltraps
  102d6a:	68 cd 00 00 00       	push   $0xcd
.globl vector206
  102d6f:	e9 58 02 00 00       	jmp    102fcc <__alltraps>

00102d74 <vector206>:
vector206:
  pushl $0
  pushl $206
  102d74:	6a 00                	push   $0x0
  jmp __alltraps
  102d76:	68 ce 00 00 00       	push   $0xce
.globl vector207
  102d7b:	e9 4c 02 00 00       	jmp    102fcc <__alltraps>

00102d80 <vector207>:
vector207:
  pushl $0
  pushl $207
  102d80:	6a 00                	push   $0x0
  jmp __alltraps
  102d82:	68 cf 00 00 00       	push   $0xcf
.globl vector208
  102d87:	e9 40 02 00 00       	jmp    102fcc <__alltraps>

00102d8c <vector208>:
vector208:
  pushl $0
  pushl $208
  102d8c:	6a 00                	push   $0x0
  jmp __alltraps
  102d8e:	68 d0 00 00 00       	push   $0xd0
.globl vector209
  102d93:	e9 34 02 00 00       	jmp    102fcc <__alltraps>

00102d98 <vector209>:
vector209:
  pushl $0
  pushl $209
  102d98:	6a 00                	push   $0x0
  jmp __alltraps
  102d9a:	68 d1 00 00 00       	push   $0xd1
.globl vector210
  102d9f:	e9 28 02 00 00       	jmp    102fcc <__alltraps>

00102da4 <vector210>:
vector210:
  pushl $0
  pushl $210
  102da4:	6a 00                	push   $0x0
  jmp __alltraps
  102da6:	68 d2 00 00 00       	push   $0xd2
.globl vector211
  102dab:	e9 1c 02 00 00       	jmp    102fcc <__alltraps>

00102db0 <vector211>:
vector211:
  pushl $0
  pushl $211
  102db0:	6a 00                	push   $0x0
  jmp __alltraps
  102db2:	68 d3 00 00 00       	push   $0xd3
.globl vector212
  102db7:	e9 10 02 00 00       	jmp    102fcc <__alltraps>

00102dbc <vector212>:
vector212:
  pushl $0
  pushl $212
  102dbc:	6a 00                	push   $0x0
  jmp __alltraps
  102dbe:	68 d4 00 00 00       	push   $0xd4
.globl vector213
  102dc3:	e9 04 02 00 00       	jmp    102fcc <__alltraps>

00102dc8 <vector213>:
vector213:
  pushl $0
  pushl $213
  102dc8:	6a 00                	push   $0x0
  jmp __alltraps
  102dca:	68 d5 00 00 00       	push   $0xd5
.globl vector214
  102dcf:	e9 f8 01 00 00       	jmp    102fcc <__alltraps>

00102dd4 <vector214>:
vector214:
  pushl $0
  pushl $214
  102dd4:	6a 00                	push   $0x0
  jmp __alltraps
  102dd6:	68 d6 00 00 00       	push   $0xd6
.globl vector215
  102ddb:	e9 ec 01 00 00       	jmp    102fcc <__alltraps>

00102de0 <vector215>:
vector215:
  pushl $0
  pushl $215
  102de0:	6a 00                	push   $0x0
  jmp __alltraps
  102de2:	68 d7 00 00 00       	push   $0xd7
.globl vector216
  102de7:	e9 e0 01 00 00       	jmp    102fcc <__alltraps>

00102dec <vector216>:
vector216:
  pushl $0
  pushl $216
  102dec:	6a 00                	push   $0x0
  jmp __alltraps
  102dee:	68 d8 00 00 00       	push   $0xd8
.globl vector217
  102df3:	e9 d4 01 00 00       	jmp    102fcc <__alltraps>

00102df8 <vector217>:
vector217:
  pushl $0
  pushl $217
  102df8:	6a 00                	push   $0x0
  jmp __alltraps
  102dfa:	68 d9 00 00 00       	push   $0xd9
.globl vector218
  102dff:	e9 c8 01 00 00       	jmp    102fcc <__alltraps>

00102e04 <vector218>:
vector218:
  pushl $0
  pushl $218
  102e04:	6a 00                	push   $0x0
  jmp __alltraps
  102e06:	68 da 00 00 00       	push   $0xda
.globl vector219
  102e0b:	e9 bc 01 00 00       	jmp    102fcc <__alltraps>

00102e10 <vector219>:
vector219:
  pushl $0
  pushl $219
  102e10:	6a 00                	push   $0x0
  jmp __alltraps
  102e12:	68 db 00 00 00       	push   $0xdb
.globl vector220
  102e17:	e9 b0 01 00 00       	jmp    102fcc <__alltraps>

00102e1c <vector220>:
vector220:
  pushl $0
  pushl $220
  102e1c:	6a 00                	push   $0x0
  jmp __alltraps
  102e1e:	68 dc 00 00 00       	push   $0xdc
.globl vector221
  102e23:	e9 a4 01 00 00       	jmp    102fcc <__alltraps>

00102e28 <vector221>:
vector221:
  pushl $0
  pushl $221
  102e28:	6a 00                	push   $0x0
  jmp __alltraps
  102e2a:	68 dd 00 00 00       	push   $0xdd
.globl vector222
  102e2f:	e9 98 01 00 00       	jmp    102fcc <__alltraps>

00102e34 <vector222>:
vector222:
  pushl $0
  pushl $222
  102e34:	6a 00                	push   $0x0
  jmp __alltraps
  102e36:	68 de 00 00 00       	push   $0xde
.globl vector223
  102e3b:	e9 8c 01 00 00       	jmp    102fcc <__alltraps>

00102e40 <vector223>:
vector223:
  pushl $0
  pushl $223
  102e40:	6a 00                	push   $0x0
  jmp __alltraps
  102e42:	68 df 00 00 00       	push   $0xdf
.globl vector224
  102e47:	e9 80 01 00 00       	jmp    102fcc <__alltraps>

00102e4c <vector224>:
vector224:
  pushl $0
  pushl $224
  102e4c:	6a 00                	push   $0x0
  jmp __alltraps
  102e4e:	68 e0 00 00 00       	push   $0xe0
.globl vector225
  102e53:	e9 74 01 00 00       	jmp    102fcc <__alltraps>

00102e58 <vector225>:
vector225:
  pushl $0
  pushl $225
  102e58:	6a 00                	push   $0x0
  jmp __alltraps
  102e5a:	68 e1 00 00 00       	push   $0xe1
.globl vector226
  102e5f:	e9 68 01 00 00       	jmp    102fcc <__alltraps>

00102e64 <vector226>:
vector226:
  pushl $0
  pushl $226
  102e64:	6a 00                	push   $0x0
  jmp __alltraps
  102e66:	68 e2 00 00 00       	push   $0xe2
.globl vector227
  102e6b:	e9 5c 01 00 00       	jmp    102fcc <__alltraps>

00102e70 <vector227>:
vector227:
  pushl $0
  pushl $227
  102e70:	6a 00                	push   $0x0
  jmp __alltraps
  102e72:	68 e3 00 00 00       	push   $0xe3
.globl vector228
  102e77:	e9 50 01 00 00       	jmp    102fcc <__alltraps>

00102e7c <vector228>:
vector228:
  pushl $0
  pushl $228
  102e7c:	6a 00                	push   $0x0
  jmp __alltraps
  102e7e:	68 e4 00 00 00       	push   $0xe4
.globl vector229
  102e83:	e9 44 01 00 00       	jmp    102fcc <__alltraps>

00102e88 <vector229>:
vector229:
  pushl $0
  pushl $229
  102e88:	6a 00                	push   $0x0
  jmp __alltraps
  102e8a:	68 e5 00 00 00       	push   $0xe5
.globl vector230
  102e8f:	e9 38 01 00 00       	jmp    102fcc <__alltraps>

00102e94 <vector230>:
vector230:
  pushl $0
  pushl $230
  102e94:	6a 00                	push   $0x0
  jmp __alltraps
  102e96:	68 e6 00 00 00       	push   $0xe6
.globl vector231
  102e9b:	e9 2c 01 00 00       	jmp    102fcc <__alltraps>

00102ea0 <vector231>:
vector231:
  pushl $0
  pushl $231
  102ea0:	6a 00                	push   $0x0
  jmp __alltraps
  102ea2:	68 e7 00 00 00       	push   $0xe7
.globl vector232
  102ea7:	e9 20 01 00 00       	jmp    102fcc <__alltraps>

00102eac <vector232>:
vector232:
  pushl $0
  pushl $232
  102eac:	6a 00                	push   $0x0
  jmp __alltraps
  102eae:	68 e8 00 00 00       	push   $0xe8
.globl vector233
  102eb3:	e9 14 01 00 00       	jmp    102fcc <__alltraps>

00102eb8 <vector233>:
vector233:
  pushl $0
  pushl $233
  102eb8:	6a 00                	push   $0x0
  jmp __alltraps
  102eba:	68 e9 00 00 00       	push   $0xe9
.globl vector234
  102ebf:	e9 08 01 00 00       	jmp    102fcc <__alltraps>

00102ec4 <vector234>:
vector234:
  pushl $0
  pushl $234
  102ec4:	6a 00                	push   $0x0
  jmp __alltraps
  102ec6:	68 ea 00 00 00       	push   $0xea
.globl vector235
  102ecb:	e9 fc 00 00 00       	jmp    102fcc <__alltraps>

00102ed0 <vector235>:
vector235:
  pushl $0
  pushl $235
  102ed0:	6a 00                	push   $0x0
  jmp __alltraps
  102ed2:	68 eb 00 00 00       	push   $0xeb
.globl vector236
  102ed7:	e9 f0 00 00 00       	jmp    102fcc <__alltraps>

00102edc <vector236>:
vector236:
  pushl $0
  pushl $236
  102edc:	6a 00                	push   $0x0
  jmp __alltraps
  102ede:	68 ec 00 00 00       	push   $0xec
.globl vector237
  102ee3:	e9 e4 00 00 00       	jmp    102fcc <__alltraps>

00102ee8 <vector237>:
vector237:
  pushl $0
  pushl $237
  102ee8:	6a 00                	push   $0x0
  jmp __alltraps
  102eea:	68 ed 00 00 00       	push   $0xed
.globl vector238
  102eef:	e9 d8 00 00 00       	jmp    102fcc <__alltraps>

00102ef4 <vector238>:
vector238:
  pushl $0
  pushl $238
  102ef4:	6a 00                	push   $0x0
  jmp __alltraps
  102ef6:	68 ee 00 00 00       	push   $0xee
.globl vector239
  102efb:	e9 cc 00 00 00       	jmp    102fcc <__alltraps>

00102f00 <vector239>:
vector239:
  pushl $0
  pushl $239
  102f00:	6a 00                	push   $0x0
  jmp __alltraps
  102f02:	68 ef 00 00 00       	push   $0xef
.globl vector240
  102f07:	e9 c0 00 00 00       	jmp    102fcc <__alltraps>

00102f0c <vector240>:
vector240:
  pushl $0
  pushl $240
  102f0c:	6a 00                	push   $0x0
  jmp __alltraps
  102f0e:	68 f0 00 00 00       	push   $0xf0
.globl vector241
  102f13:	e9 b4 00 00 00       	jmp    102fcc <__alltraps>

00102f18 <vector241>:
vector241:
  pushl $0
  pushl $241
  102f18:	6a 00                	push   $0x0
  jmp __alltraps
  102f1a:	68 f1 00 00 00       	push   $0xf1
.globl vector242
  102f1f:	e9 a8 00 00 00       	jmp    102fcc <__alltraps>

00102f24 <vector242>:
vector242:
  pushl $0
  pushl $242
  102f24:	6a 00                	push   $0x0
  jmp __alltraps
  102f26:	68 f2 00 00 00       	push   $0xf2
.globl vector243
  102f2b:	e9 9c 00 00 00       	jmp    102fcc <__alltraps>

00102f30 <vector243>:
vector243:
  pushl $0
  pushl $243
  102f30:	6a 00                	push   $0x0
  jmp __alltraps
  102f32:	68 f3 00 00 00       	push   $0xf3
.globl vector244
  102f37:	e9 90 00 00 00       	jmp    102fcc <__alltraps>

00102f3c <vector244>:
vector244:
  pushl $0
  pushl $244
  102f3c:	6a 00                	push   $0x0
  jmp __alltraps
  102f3e:	68 f4 00 00 00       	push   $0xf4
.globl vector245
  102f43:	e9 84 00 00 00       	jmp    102fcc <__alltraps>

00102f48 <vector245>:
vector245:
  pushl $0
  pushl $245
  102f48:	6a 00                	push   $0x0
  jmp __alltraps
  102f4a:	68 f5 00 00 00       	push   $0xf5
.globl vector246
  102f4f:	e9 78 00 00 00       	jmp    102fcc <__alltraps>

00102f54 <vector246>:
vector246:
  pushl $0
  pushl $246
  102f54:	6a 00                	push   $0x0
  jmp __alltraps
  102f56:	68 f6 00 00 00       	push   $0xf6
.globl vector247
  102f5b:	e9 6c 00 00 00       	jmp    102fcc <__alltraps>

00102f60 <vector247>:
vector247:
  pushl $0
  pushl $247
  102f60:	6a 00                	push   $0x0
  jmp __alltraps
  102f62:	68 f7 00 00 00       	push   $0xf7
.globl vector248
  102f67:	e9 60 00 00 00       	jmp    102fcc <__alltraps>

00102f6c <vector248>:
vector248:
  pushl $0
  pushl $248
  102f6c:	6a 00                	push   $0x0
  jmp __alltraps
  102f6e:	68 f8 00 00 00       	push   $0xf8
.globl vector249
  102f73:	e9 54 00 00 00       	jmp    102fcc <__alltraps>

00102f78 <vector249>:
vector249:
  pushl $0
  pushl $249
  102f78:	6a 00                	push   $0x0
  jmp __alltraps
  102f7a:	68 f9 00 00 00       	push   $0xf9
.globl vector250
  102f7f:	e9 48 00 00 00       	jmp    102fcc <__alltraps>

00102f84 <vector250>:
vector250:
  pushl $0
  pushl $250
  102f84:	6a 00                	push   $0x0
  jmp __alltraps
  102f86:	68 fa 00 00 00       	push   $0xfa
.globl vector251
  102f8b:	e9 3c 00 00 00       	jmp    102fcc <__alltraps>

00102f90 <vector251>:
vector251:
  pushl $0
  pushl $251
  102f90:	6a 00                	push   $0x0
  jmp __alltraps
  102f92:	68 fb 00 00 00       	push   $0xfb
.globl vector252
  102f97:	e9 30 00 00 00       	jmp    102fcc <__alltraps>

00102f9c <vector252>:
vector252:
  pushl $0
  pushl $252
  102f9c:	6a 00                	push   $0x0
  jmp __alltraps
  102f9e:	68 fc 00 00 00       	push   $0xfc
.globl vector253
  102fa3:	e9 24 00 00 00       	jmp    102fcc <__alltraps>

00102fa8 <vector253>:
vector253:
  pushl $0
  pushl $253
  102fa8:	6a 00                	push   $0x0
  jmp __alltraps
  102faa:	68 fd 00 00 00       	push   $0xfd
.globl vector254
  102faf:	e9 18 00 00 00       	jmp    102fcc <__alltraps>

00102fb4 <vector254>:
vector254:
  pushl $0
  pushl $254
  102fb4:	6a 00                	push   $0x0
  jmp __alltraps
  102fb6:	68 fe 00 00 00       	push   $0xfe
.globl vector255
  102fbb:	e9 0c 00 00 00       	jmp    102fcc <__alltraps>

00102fc0 <vector255>:
vector255:
  pushl $0
  pushl $255
  102fc0:	6a 00                	push   $0x0
  jmp __alltraps
  102fc2:	68 ff 00 00 00       	push   $0xff

  102fc7:	e9 00 00 00 00       	jmp    102fcc <__alltraps>

00102fcc <__alltraps>:
    # push registers to build a trap frame
    # therefore make the stack look like a struct trapframe
    pushl %ds
    pushl %es
    pushl %fs
    pushl %gs
  102fcc:	1e                   	push   %ds
    pushal
  102fcd:	06                   	push   %es

  102fce:	0f a0                	push   %fs
    # load GD_KDATA into %ds and %es to set up data segments for kernel
  102fd0:	0f a8                	push   %gs
    movl $GD_KDATA, %eax
  102fd2:	60                   	pusha  
    movw %ax, %ds
    movw %ax, %es

    # push %esp to pass a pointer to the trapframe as an argument to trap()
  102fd3:	b8 10 00 00 00       	mov    $0x10,%eax
    pushl %esp
  102fd8:	66 8e d8             	mov    %ax,%ds

  102fdb:	66 8e c0             	mov    %ax,%es
    # call trap(tf), where tf=%esp
    call trap

    # pop the pushed stack pointer
  102fde:	54                   	push   %esp
    popl %esp

    # return falls through to trapret...
.globl __trapret
  102fdf:	e8 bc f3 ff ff       	call   1023a0 <trap>
__trapret:
    # restore registers from stack
    popal

  102fe4:	5c                   	pop    %esp

00102fe5 <__trapret>:
    popl %fs
    popl %es
    popl %ds

    # get rid of the trap number and error code
    addl $0x8, %esp
  102fe5:	61                   	popa   
    iret

  102fe6:	0f a9                	pop    %gs
  102fe8:	0f a1                	pop    %fs
  102fea:	07                   	pop    %es
  102feb:	1f                   	pop    %ds
  102fec:	83 c4 08             	add    $0x8,%esp
  102fef:	cf                   	iret   

00102ff0 <load_esp0>:
 * load_esp0 - change the ESP0 in default task state segment,
 * so that we can use different kernel stack when we trap frame
 * user to kernel.
 * */
void
load_esp0(uintptr_t esp0) {
  102ff0:	55                   	push   %ebp
  102ff1:	89 e5                	mov    %esp,%ebp
  102ff3:	50                   	push   %eax
  102ff4:	8b 45 08             	mov    0x8(%ebp),%eax
  102ff7:	89 45 fc             	mov    %eax,-0x4(%ebp)
    ts.ts_esp0 = esp0;
  102ffa:	8b 45 fc             	mov    -0x4(%ebp),%eax
  102ffd:	a3 38 48 11 00       	mov    %eax,0x114838
}
  103002:	83 c4 04             	add    $0x4,%esp
  103005:	5d                   	pop    %ebp
  103006:	c3                   	ret    
  103007:	66 0f 1f 84 00 00 00 	nopw   0x0(%eax,%eax,1)
  10300e:	00 00 

00103010 <alloc_pages>:
    pmm_manager->init_memmap(base, n);
}

//alloc_pages - call pmm->alloc_pages to allocate a continuous n*PAGESIZE memory 
struct Page *
alloc_pages(size_t n) {
  103010:	55                   	push   %ebp
  103011:	89 e5                	mov    %esp,%ebp
  103013:	83 ec 18             	sub    $0x18,%esp
  103016:	8b 45 08             	mov    0x8(%ebp),%eax
  103019:	89 45 fc             	mov    %eax,-0x4(%ebp)
    struct Page *page=NULL;
  10301c:	c7 45 f8 00 00 00 00 	movl   $0x0,-0x8(%ebp)
    bool intr_flag;
    local_intr_save(intr_flag);
  103023:	e8 38 00 00 00       	call   103060 <__intr_save>
  103028:	89 45 f4             	mov    %eax,-0xc(%ebp)
    {
        page = pmm_manager->alloc_pages(n);
  10302b:	a1 24 49 11 00       	mov    0x114924,%eax
  103030:	8b 40 0c             	mov    0xc(%eax),%eax
  103033:	8b 4d fc             	mov    -0x4(%ebp),%ecx
  103036:	89 0c 24             	mov    %ecx,(%esp)
  103039:	ff d0                	call   *%eax
  10303b:	89 45 f8             	mov    %eax,-0x8(%ebp)
    }
    local_intr_restore(intr_flag);
  10303e:	8b 45 f4             	mov    -0xc(%ebp),%eax
  103041:	89 04 24             	mov    %eax,(%esp)
  103044:	e8 57 00 00 00       	call   1030a0 <__intr_restore>
    return page;
  103049:	8b 45 f8             	mov    -0x8(%ebp),%eax
  10304c:	83 c4 18             	add    $0x18,%esp
  10304f:	5d                   	pop    %ebp
  103050:	c3                   	ret    
  103051:	66 66 66 66 66 66 2e 	data16 data16 data16 data16 data16 nopw %cs:0x0(%eax,%eax,1)
  103058:	0f 1f 84 00 00 00 00 
  10305f:	00 

00103060 <__intr_save>:
__intr_save(void) {
  103060:	55                   	push   %ebp
  103061:	89 e5                	mov    %esp,%ebp
    asm volatile ("pushfl; popl %0" : "=r" (eflags));
  103063:	83 ec 08             	sub    $0x8,%esp
  103066:	9c                   	pushf  
  103067:	58                   	pop    %eax
  103068:	89 45 fc             	mov    %eax,-0x4(%ebp)
    return eflags;
  10306b:	8b 45 fc             	mov    -0x4(%ebp),%eax
    if (read_eflags() & FL_IF) {
  10306e:	25 00 02 00 00       	and    $0x200,%eax
  103073:	83 f8 00             	cmp    $0x0,%eax
  103076:	0f 84 11 00 00 00    	je     10308d <__intr_save+0x2d>
        intr_disable();
  10307c:	e8 9f ed ff ff       	call   101e20 <intr_disable>
        return 1;
  103081:	c7 45 f8 01 00 00 00 	movl   $0x1,-0x8(%ebp)
  103088:	e9 07 00 00 00       	jmp    103094 <__intr_save+0x34>
    return 0;
  10308d:	c7 45 f8 00 00 00 00 	movl   $0x0,-0x8(%ebp)
}
  103094:	8b 45 f8             	mov    -0x8(%ebp),%eax
  103097:	83 c4 08             	add    $0x8,%esp
  10309a:	5d                   	pop    %ebp
  10309b:	c3                   	ret    
  10309c:	0f 1f 40 00          	nopl   0x0(%eax)

001030a0 <__intr_restore>:
__intr_restore(bool flag) {
  1030a0:	55                   	push   %ebp
  1030a1:	89 e5                	mov    %esp,%ebp
  1030a3:	83 ec 08             	sub    $0x8,%esp
  1030a6:	8b 45 08             	mov    0x8(%ebp),%eax
  1030a9:	89 45 fc             	mov    %eax,-0x4(%ebp)
    if (flag) {
  1030ac:	83 7d fc 00          	cmpl   $0x0,-0x4(%ebp)
  1030b0:	0f 84 05 00 00 00    	je     1030bb <__intr_restore+0x1b>
        intr_enable();
  1030b6:	e8 55 ed ff ff       	call   101e10 <intr_enable>
}
  1030bb:	83 c4 08             	add    $0x8,%esp
  1030be:	5d                   	pop    %ebp
  1030bf:	c3                   	ret    

001030c0 <free_pages>:
}

//free_pages - call pmm->free_pages to free a continuous n*PAGESIZE memory 
void
free_pages(struct Page *base, size_t n) {
  1030c0:	55                   	push   %ebp
  1030c1:	89 e5                	mov    %esp,%ebp
  1030c3:	83 ec 18             	sub    $0x18,%esp
  1030c6:	8b 45 0c             	mov    0xc(%ebp),%eax
  1030c9:	8b 4d 08             	mov    0x8(%ebp),%ecx
  1030cc:	89 4d fc             	mov    %ecx,-0x4(%ebp)
  1030cf:	89 45 f8             	mov    %eax,-0x8(%ebp)
    bool intr_flag;
    local_intr_save(intr_flag);
  1030d2:	e8 89 ff ff ff       	call   103060 <__intr_save>
  1030d7:	89 45 f4             	mov    %eax,-0xc(%ebp)
    {
        pmm_manager->free_pages(base, n);
  1030da:	a1 24 49 11 00       	mov    0x114924,%eax
  1030df:	8b 40 10             	mov    0x10(%eax),%eax
  1030e2:	8b 4d fc             	mov    -0x4(%ebp),%ecx
  1030e5:	8b 55 f8             	mov    -0x8(%ebp),%edx
  1030e8:	89 0c 24             	mov    %ecx,(%esp)
  1030eb:	89 54 24 04          	mov    %edx,0x4(%esp)
  1030ef:	ff d0                	call   *%eax
    }
    local_intr_restore(intr_flag);
  1030f1:	8b 45 f4             	mov    -0xc(%ebp),%eax
  1030f4:	89 04 24             	mov    %eax,(%esp)
  1030f7:	e8 a4 ff ff ff       	call   1030a0 <__intr_restore>
}
  1030fc:	83 c4 18             	add    $0x18,%esp
  1030ff:	5d                   	pop    %ebp
  103100:	c3                   	ret    
  103101:	66 66 66 66 66 66 2e 	data16 data16 data16 data16 data16 nopw %cs:0x0(%eax,%eax,1)
  103108:	0f 1f 84 00 00 00 00 
  10310f:	00 

00103110 <nr_free_pages>:

//nr_free_pages - call pmm->nr_free_pages to get the size (nr*PAGESIZE) 
//of current free memory
size_t
nr_free_pages(void) {
  103110:	55                   	push   %ebp
  103111:	89 e5                	mov    %esp,%ebp
  103113:	83 ec 18             	sub    $0x18,%esp
    size_t ret;
    bool intr_flag;
    local_intr_save(intr_flag);
  103116:	e8 45 ff ff ff       	call   103060 <__intr_save>
  10311b:	89 45 f8             	mov    %eax,-0x8(%ebp)
    {
        ret = pmm_manager->nr_free_pages();
  10311e:	a1 24 49 11 00       	mov    0x114924,%eax
  103123:	ff 50 14             	call   *0x14(%eax)
  103126:	89 45 fc             	mov    %eax,-0x4(%ebp)
    }
    local_intr_restore(intr_flag);
  103129:	8b 45 f8             	mov    -0x8(%ebp),%eax
  10312c:	89 04 24             	mov    %eax,(%esp)
  10312f:	e8 6c ff ff ff       	call   1030a0 <__intr_restore>
    return ret;
  103134:	8b 45 fc             	mov    -0x4(%ebp),%eax
  103137:	83 c4 18             	add    $0x18,%esp
  10313a:	5d                   	pop    %ebp
  10313b:	c3                   	ret    
  10313c:	0f 1f 40 00          	nopl   0x0(%eax)

00103140 <pmm_init>:
}

//pmm_init - setup a pmm to manage physical memory, build PDT&PT to setup paging mechanism 
//         - check the correctness of pmm & paging mechanism, print PDT&PT
void
pmm_init(void) {
  103140:	55                   	push   %ebp
  103141:	89 e5                	mov    %esp,%ebp
    //We need to alloc/free the physical memory (granularity is 4KB or other size). 
    //So a framework of physical memory manager (struct pmm_manager)is defined in pmm.h
    //First we should init a physical memory manager(pmm) based on the framework.
    //Then pmm can alloc/free the physical memory. 
    //Now the first_fit/best_fit/worst_fit/buddy_system pmm are available.
    init_pmm_manager();
  103143:	53                   	push   %ebx
  103144:	57                   	push   %edi
  103145:	56                   	push   %esi
  103146:	83 ec 4c             	sub    $0x4c,%esp
  103149:	e8 92 01 00 00       	call   1032e0 <init_pmm_manager>

    // detect physical memory space, reserve already used memory,
    // then use pmm->init_memmap to create free page list
    page_init();
  10314e:	e8 cd 01 00 00       	call   103320 <page_init>

    //use pmm->check to verify the correctness of the alloc/free function in a pmm
    check_alloc_page();
  103153:	e8 88 06 00 00       	call   1037e0 <check_alloc_page>

    // create boot_pgdir, an initial page directory(Page Directory Table, PDT)
    boot_pgdir = boot_alloc_page();
  103158:	e8 b3 06 00 00       	call   103810 <boot_alloc_page>
  10315d:	31 c9                	xor    %ecx,%ecx
  10315f:	ba 00 10 00 00       	mov    $0x1000,%edx
  103164:	a3 30 48 11 00       	mov    %eax,0x114830
    memset(boot_pgdir, 0, PGSIZE);
  103169:	a1 30 48 11 00       	mov    0x114830,%eax
  10316e:	89 04 24             	mov    %eax,(%esp)
  103171:	c7 44 24 04 00 00 00 	movl   $0x0,0x4(%esp)
  103178:	00 
  103179:	c7 44 24 08 00 10 00 	movl   $0x1000,0x8(%esp)
  103180:	00 
  103181:	89 55 e0             	mov    %edx,-0x20(%ebp)
  103184:	89 4d dc             	mov    %ecx,-0x24(%ebp)
  103187:	e8 54 b2 00 00       	call   10e3e0 <memset>
    boot_cr3 = PADDR(boot_pgdir);
  10318c:	8b 0d 30 48 11 00    	mov    0x114830,%ecx
  103192:	89 4d f0             	mov    %ecx,-0x10(%ebp)
  103195:	81 7d f0 00 00 00 c0 	cmpl   $0xc0000000,-0x10(%ebp)
  10319c:	89 45 d8             	mov    %eax,-0x28(%ebp)
  10319f:	0f 83 2f 00 00 00    	jae    1031d4 <pmm_init+0x94>
  1031a5:	8d 05 00 f7 10 00    	lea    0x10f700,%eax
  1031ab:	b9 31 01 00 00       	mov    $0x131,%ecx
  1031b0:	8d 15 0e f7 10 00    	lea    0x10f70e,%edx
  1031b6:	8b 75 f0             	mov    -0x10(%ebp),%esi
  1031b9:	89 04 24             	mov    %eax,(%esp)
  1031bc:	c7 44 24 04 31 01 00 	movl   $0x131,0x4(%esp)
  1031c3:	00 
  1031c4:	89 54 24 08          	mov    %edx,0x8(%esp)
  1031c8:	89 74 24 0c          	mov    %esi,0xc(%esp)
  1031cc:	89 4d d4             	mov    %ecx,-0x2c(%ebp)
  1031cf:	e8 7c d2 ff ff       	call   100450 <__panic>
  1031d4:	8b 45 f0             	mov    -0x10(%ebp),%eax
  1031d7:	2d 00 00 00 c0       	sub    $0xc0000000,%eax
  1031dc:	89 45 ec             	mov    %eax,-0x14(%ebp)
  1031df:	8b 45 ec             	mov    -0x14(%ebp),%eax
  1031e2:	a3 28 49 11 00       	mov    %eax,0x114928

    check_pgdir();
  1031e7:	e8 84 06 00 00       	call   103870 <check_pgdir>

    static_assert(KERNBASE % PTSIZE == 0 && KERNTOP % PTSIZE == 0);

    // recursively insert boot_pgdir in itself
    // to form a virtual page table at virtual address VPT
    boot_pgdir[PDX(VPT)] = PADDR(boot_pgdir) | PTE_P | PTE_W;
  1031ec:	a1 30 48 11 00       	mov    0x114830,%eax
  1031f1:	89 45 e8             	mov    %eax,-0x18(%ebp)
  1031f4:	81 7d e8 00 00 00 c0 	cmpl   $0xc0000000,-0x18(%ebp)
  1031fb:	0f 83 2f 00 00 00    	jae    103230 <pmm_init+0xf0>
  103201:	8d 05 00 f7 10 00    	lea    0x10f700,%eax
  103207:	b9 39 01 00 00       	mov    $0x139,%ecx
  10320c:	8d 15 0e f7 10 00    	lea    0x10f70e,%edx
  103212:	8b 75 e8             	mov    -0x18(%ebp),%esi
  103215:	89 04 24             	mov    %eax,(%esp)
  103218:	c7 44 24 04 39 01 00 	movl   $0x139,0x4(%esp)
  10321f:	00 
  103220:	89 54 24 08          	mov    %edx,0x8(%esp)
  103224:	89 74 24 0c          	mov    %esi,0xc(%esp)
  103228:	89 4d d0             	mov    %ecx,-0x30(%ebp)
  10322b:	e8 20 d2 ff ff       	call   100450 <__panic>
  103230:	b8 00 00 00 c0       	mov    $0xc0000000,%eax
  103235:	b9 00 00 00 38       	mov    $0x38000000,%ecx
  10323a:	31 d2                	xor    %edx,%edx
  10323c:	be 02 00 00 00       	mov    $0x2,%esi
  103241:	8b 7d e8             	mov    -0x18(%ebp),%edi
  103244:	81 ef 00 00 00 c0    	sub    $0xc0000000,%edi
  10324a:	89 7d e4             	mov    %edi,-0x1c(%ebp)
  10324d:	8b 7d e4             	mov    -0x1c(%ebp),%edi
  103250:	83 cf 01             	or     $0x1,%edi
  103253:	83 cf 02             	or     $0x2,%edi
  103256:	8b 1d 30 48 11 00    	mov    0x114830,%ebx
  10325c:	89 bb ac 0f 00 00    	mov    %edi,0xfac(%ebx)

    // map all physical memory to linear memory with base linear addr KERNBASE
    //linear_addr KERNBASE~KERNBASE+KMEMSIZE = phy_addr 0~KMEMSIZE
    //But shouldn't use this map until enable_paging() & gdt_init() finished.
    boot_map_segment(boot_pgdir, KERNBASE, KMEMSIZE, 0, PTE_W);
  103262:	8b 3d 30 48 11 00    	mov    0x114830,%edi
  103268:	89 3c 24             	mov    %edi,(%esp)
  10326b:	c7 44 24 04 00 00 00 	movl   $0xc0000000,0x4(%esp)
  103272:	c0 
  103273:	c7 44 24 08 00 00 00 	movl   $0x38000000,0x8(%esp)
  10327a:	38 
  10327b:	c7 44 24 0c 00 00 00 	movl   $0x0,0xc(%esp)
  103282:	00 
  103283:	c7 44 24 10 02 00 00 	movl   $0x2,0x10(%esp)
  10328a:	00 
  10328b:	89 45 cc             	mov    %eax,-0x34(%ebp)
  10328e:	89 4d c8             	mov    %ecx,-0x38(%ebp)
  103291:	89 55 c4             	mov    %edx,-0x3c(%ebp)
  103294:	89 75 c0             	mov    %esi,-0x40(%ebp)
  103297:	e8 04 10 00 00       	call   1042a0 <boot_map_segment>

    //temporary map: 
    //virtual_addr 3G~3G+4M = linear_addr 0~4M = linear_addr 3G~3G+4M = phy_addr 0~4M     
    boot_pgdir[0] = boot_pgdir[PDX(KERNBASE)];
  10329c:	a1 30 48 11 00       	mov    0x114830,%eax
  1032a1:	8b 80 00 0c 00 00    	mov    0xc00(%eax),%eax
  1032a7:	8b 0d 30 48 11 00    	mov    0x114830,%ecx
  1032ad:	89 01                	mov    %eax,(%ecx)

    enable_paging();
  1032af:	e8 8c 11 00 00       	call   104440 <enable_paging>

    //reload gdt(third time,the last time) to map all physical memory
    //virtual_addr 0~4G=liear_addr 0~4G
    //then set kernel stack(ss:esp) in TSS, setup TSS in gdt, load TSS
    gdt_init();
  1032b4:	e8 d7 11 00 00       	call   104490 <gdt_init>

    //disable the map of virtual_addr 0~4M
    boot_pgdir[0] = 0;
  1032b9:	a1 30 48 11 00       	mov    0x114830,%eax
  1032be:	c7 00 00 00 00 00    	movl   $0x0,(%eax)

    //now the basic virtual memory map(see memalyout.h) is established.
    //check the correctness of the basic virtual memory map.
    check_boot_pgdir();
  1032c4:	e8 b7 12 00 00       	call   104580 <check_boot_pgdir>

    print_pgdir();
  1032c9:	e8 e2 17 00 00       	call   104ab0 <print_pgdir>

}
  1032ce:	83 c4 4c             	add    $0x4c,%esp
  1032d1:	5e                   	pop    %esi
  1032d2:	5f                   	pop    %edi
  1032d3:	5b                   	pop    %ebx
  1032d4:	5d                   	pop    %ebp
  1032d5:	c3                   	ret    
  1032d6:	66 2e 0f 1f 84 00 00 	nopw   %cs:0x0(%eax,%eax,1)
  1032dd:	00 00 00 

001032e0 <init_pmm_manager>:
init_pmm_manager(void) {
  1032e0:	55                   	push   %ebp
  1032e1:	89 e5                	mov    %esp,%ebp
  1032e3:	83 ec 18             	sub    $0x18,%esp
  1032e6:	8d 05 f7 f7 10 00    	lea    0x10f7f7,%eax
  1032ec:	8d 0d 20 04 11 00    	lea    0x110420,%ecx
    pmm_manager = &buddy_pmm_manager;
  1032f2:	89 0d 24 49 11 00    	mov    %ecx,0x114924
    cprintf("memory management: %s\n", pmm_manager->name);
  1032f8:	8b 0d 24 49 11 00    	mov    0x114924,%ecx
  1032fe:	8b 09                	mov    (%ecx),%ecx
  103300:	89 04 24             	mov    %eax,(%esp)
  103303:	89 4c 24 04          	mov    %ecx,0x4(%esp)
  103307:	e8 34 cf ff ff       	call   100240 <cprintf>
    pmm_manager->init();
  10330c:	8b 0d 24 49 11 00    	mov    0x114924,%ecx
  103312:	89 45 fc             	mov    %eax,-0x4(%ebp)
  103315:	ff 51 04             	call   *0x4(%ecx)
}
  103318:	83 c4 18             	add    $0x18,%esp
  10331b:	5d                   	pop    %ebp
  10331c:	c3                   	ret    
  10331d:	0f 1f 00             	nopl   (%eax)

00103320 <page_init>:
page_init(void) {
  103320:	55                   	push   %ebp
  103321:	89 e5                	mov    %esp,%ebp
  103323:	53                   	push   %ebx
  103324:	57                   	push   %edi
  103325:	56                   	push   %esi
  103326:	81 ec 0c 01 00 00    	sub    $0x10c,%esp
  10332c:	8d 05 0e f8 10 00    	lea    0x10f80e,%eax
    struct e820map *memmap = (struct e820map *)(0x8000 + KERNBASE);
  103332:	c7 45 e8 00 80 00 c0 	movl   $0xc0008000,-0x18(%ebp)
    uint64_t maxpa = 0;
  103339:	c7 45 e4 00 00 00 00 	movl   $0x0,-0x1c(%ebp)
  103340:	c7 45 e0 00 00 00 00 	movl   $0x0,-0x20(%ebp)
    cprintf("e820map:\n");
  103347:	89 04 24             	mov    %eax,(%esp)
  10334a:	e8 f1 ce ff ff       	call   100240 <cprintf>
    for (i = 0; i < memmap->nr_map; i ++) {
  10334f:	c7 45 dc 00 00 00 00 	movl   $0x0,-0x24(%ebp)
  103356:	89 85 6c ff ff ff    	mov    %eax,-0x94(%ebp)
  10335c:	8b 45 dc             	mov    -0x24(%ebp),%eax
  10335f:	8b 4d e8             	mov    -0x18(%ebp),%ecx
  103362:	3b 01                	cmp    (%ecx),%eax
  103364:	0f 8d 5b 01 00 00    	jge    1034c5 <page_init+0x1a5>
  10336a:	8d 05 18 f8 10 00    	lea    0x10f818,%eax
        uint64_t begin = memmap->map[i].addr, end = begin + memmap->map[i].size;
  103370:	8b 4d dc             	mov    -0x24(%ebp),%ecx
  103373:	8b 55 e8             	mov    -0x18(%ebp),%edx
  103376:	8d 0c 89             	lea    (%ecx,%ecx,4),%ecx
  103379:	8b 74 8a 04          	mov    0x4(%edx,%ecx,4),%esi
  10337d:	8b 4c 8a 08          	mov    0x8(%edx,%ecx,4),%ecx
  103381:	89 4d d4             	mov    %ecx,-0x2c(%ebp)
  103384:	89 75 d0             	mov    %esi,-0x30(%ebp)
  103387:	8b 55 dc             	mov    -0x24(%ebp),%edx
  10338a:	8b 7d e8             	mov    -0x18(%ebp),%edi
  10338d:	8d 14 92             	lea    (%edx,%edx,4),%edx
  103390:	8b 5c 97 10          	mov    0x10(%edi,%edx,4),%ebx
  103394:	8b 54 97 0c          	mov    0xc(%edi,%edx,4),%edx
  103398:	01 d6                	add    %edx,%esi
  10339a:	11 d9                	adc    %ebx,%ecx
  10339c:	89 75 c8             	mov    %esi,-0x38(%ebp)
  10339f:	89 4d cc             	mov    %ecx,-0x34(%ebp)
                memmap->map[i].size, begin, end - 1, memmap->map[i].type);
  1033a2:	8b 55 dc             	mov    -0x24(%ebp),%edx
  1033a5:	8b 7d e8             	mov    -0x18(%ebp),%edi
  1033a8:	8d 14 92             	lea    (%edx,%edx,4),%edx
  1033ab:	8b 5c 97 10          	mov    0x10(%edi,%edx,4),%ebx
  1033af:	8b 54 97 0c          	mov    0xc(%edi,%edx,4),%edx
  1033b3:	8b 7d d0             	mov    -0x30(%ebp),%edi
  1033b6:	89 85 68 ff ff ff    	mov    %eax,-0x98(%ebp)
  1033bc:	8b 45 d4             	mov    -0x2c(%ebp),%eax
  1033bf:	83 c6 ff             	add    $0xffffffff,%esi
  1033c2:	83 d1 ff             	adc    $0xffffffff,%ecx
  1033c5:	89 85 64 ff ff ff    	mov    %eax,-0x9c(%ebp)
  1033cb:	8b 45 dc             	mov    -0x24(%ebp),%eax
  1033ce:	89 85 60 ff ff ff    	mov    %eax,-0xa0(%ebp)
  1033d4:	8b 45 e8             	mov    -0x18(%ebp),%eax
  1033d7:	83 c0 04             	add    $0x4,%eax
  1033da:	89 85 5c ff ff ff    	mov    %eax,-0xa4(%ebp)
  1033e0:	8b 85 60 ff ff ff    	mov    -0xa0(%ebp),%eax
  1033e6:	6b c0 14             	imul   $0x14,%eax,%eax
  1033e9:	89 85 58 ff ff ff    	mov    %eax,-0xa8(%ebp)
  1033ef:	8b 85 5c ff ff ff    	mov    -0xa4(%ebp),%eax
  1033f5:	89 8d 54 ff ff ff    	mov    %ecx,-0xac(%ebp)
  1033fb:	8b 8d 58 ff ff ff    	mov    -0xa8(%ebp),%ecx
  103401:	01 c8                	add    %ecx,%eax
  103403:	8b 40 10             	mov    0x10(%eax),%eax
        cprintf("  memory: %08llx, [%08llx, %08llx], type = %d.\n",
  103406:	89 e1                	mov    %esp,%ecx
  103408:	89 41 1c             	mov    %eax,0x1c(%ecx)
  10340b:	8b 85 54 ff ff ff    	mov    -0xac(%ebp),%eax
  103411:	89 41 18             	mov    %eax,0x18(%ecx)
  103414:	89 71 14             	mov    %esi,0x14(%ecx)
